(lp0
S'CC(C)C(CCC(C)C1CCC2C1(CCC3C2CC=C4C3(CCC(C4)O)C)C)O'
p1
aS'CC(CCC=C(C)C)C1CCC2C1(CCC3=C2CCC4C3(CCC(C4(C)C(=O)O)O)C)C'
p2
aS'CC(C)C(C)C(C(C(C)C1CCC2C1(CCC3C2CC(C4C3(CC(C(C4)O)O)C)O)C)O)O'
p3
aS'CC(CCCC(C)C(=O)O)C1CCC2C1(CCC3C2C(CC4C3(CCC(C4)O)C)O)C'
p4
aS'CC12CCC(CC1CCC3C2C(CC4(C3CCC4C(=O)CO)C=O)O)O'
p5
aS'CC12CCC(CC1CCC3C2CCC4(C3CCC4O)C)O'
p6
aS'CC12CCC(=O)CC1CCC3C2CCC4(C3CCC4C(=O)CO)C'
p7
aS'CC(C)C(C)C=CC(C)C1CCC2C1(CCCC2=CC=C3CC(CCC3=C)O)C'
p8
aS'CC12CCC(=O)C=C1CCC3C2C(=O)CC4(C3CCC4=O)C'
p9
aS'CC(C)C(C)C(C(C(C)C1CCC2C1(CCC3C2CC(=O)C4C3(CC(C(C4)O)O)C)C)O)O'
p10
aS'CC(C)CCCC(C)C1CCC2C1(CCC3C2C(C=C4C3(CCC(C4)O)C)O)C'
p11
aS'CC12CCC3C(C1CCC2O)CCC4=CC(=C(C=C34)OC)O'
p12
aS'CC(C)C(C)C(C(C(C)C1CCC2C1(CCC3C2CC(=O)C4C3(CCC(C4)O)C)C)O)O'
p13
aS'CC(C)C(=C)CCC(C)C1CCC2C1(CCC3C2=CCC4C3(CCC(C4)O)C)C'
p14
aS'CC12CCC(CC1CCC3C2C(=O)CC4(C3CCC4(C(=O)CO)O)C)O'
p15
aS'CC(CCC=C(C)C)C1CCC2C1(CCC3C2=CC=C4C3(CCC(C4)O)C)C'
p16
aS'CC12CCC(CC1CCC3C2C(=O)CC4(C3CCC4(C(CO)O)O)C)O'
p17
aS'CC(=O)C1CCC2C1(CCC3C2CCC4C3(CCC(C4)O)C)C'
p18
aS'CC1C2CCC3C4(CCC(C4(CCC35C2(C5)CCC1O)C)C(C)CCC(=C)C(C)C)C'
p19
aS'CC(C)C(=C)CCC(C)C1CCC2(C1(CCC34C2CCC5C3(C4)CCC(C5(C)C)O)C)C'
p20
aS'CC(C)CCCC(C)C1CCC2(C1(CCC3=C2CCC4C3(CCC(C4(C)C)O)C)C)C'
p21
aS'CC1C2CCC3=C(C2(CCC1O)C)CCC4(C3CCC4C(C)CCC=C(C)C)C'
p22
aS'CC(CCC(C(C)(C)O)O)C1CCC2C1(CCCC2=CC=C3CC(CCC3=C)O)C'
p23
aS'CC(C)C(C)CC(C(C)C1CCC2C1(CCC3C2CCC4C3(CCC(=O)C4)C)C)O'
p24
aS'CC(C)C(C)C(C(C(C)C1CCC2C1(CCC3C2CC(=O)C4C3(CCC(=O)C4)C)C)O)O'
p25
aS'CC(C)C(C)C(C(C(C)C1CCC2C1(CCC3C2CC=C4C3(CCC(C4)O)C)C)O)O'
p26
aS'CC(C)CCCC(C)C1CCC2C1(CCC3C2C(CC4C3(CCC(=O)C4)C)O)C'
p27
aS'CC12CCC(=O)C=C1CCC3C2CCC4(C3CC(C4=O)O)C'
p28
aS'CC(C)C(=C)CCC(C)C1CCC2C1(CCC3=C2CCC4C3(CCC(C4)O)C)C'
p29
aS'CC12CCC(=O)C=C1CCC3C2C(CC4(C3CCC4=O)C)O'
p30
aS'CC12CCC(=O)C=C1CCC3C2C(=O)CC4(C3CCC4(C(=O)CO)O)C'
p31
aS'CC(C)C(C)C=CC(C)C1CCC2C1(CCC3C2=CC=C4C3(CCC(C4)O)C)C'
p32
aS'CC12CCC3C(C1CCC2=O)CC=C4C3(CCC(C4)O)C'
p33
aS'CC12CCC(=O)C=C1CCC3C2C(CC4(C3CCC4C(=O)CO)CO)O'
p34
aS'CC12CCC(=O)C=C1CCC3C2C(CC4(C3CCC4(C(=O)CO)O)C)O'
p35
aS'CC(C)CCCC(C)C1CCC2C1(CCC3=C2CCC4C3(CCC(C4)O)C)C'
p36
aS'CC(CCC=C(C)C)C1CCC2C1(CCC3=C2CCC4C3(CCC(C4)O)C)C'
p37
aS'CC12CCC(CC1CCC3C2C(CC4(C3CCC4(C(CO)O)O)C)O)O'
p38
aS'CC(CCCC(C)(C)O)C1CCC2C1(CCCC2=CC=C3CC(CCC3=C)O)C'
p39
aS'CC12CCC(CC1CCC3C2CCC4(C3CCC4=O)C)O'
p40
aS'CC12CCC3C(C1CCC2=O)CCC4=CC(=C(C=C34)OC)O'
p41
aS'CC=C(CCC(C)C1CCC2C1(CCC3C2=CCC4C3(CCC(C4)O)C)C)C(C)C'
p42
aS'CC(=O)C1CCC2C1(CCC3C2CCC4C3(CCC(=O)C4)C)C'
p43
aS'CC(CCC=C(C)C)C1CCC2C1(CCC3C2CC=C4C3(CCC(C4)O)C)C'
p44
aS'CC12CCC(=O)CC1CCC3C2C(CC4(C3CCC4(C(=O)CO)O)C)O'
p45
aS'CC(C)C(C)C(C(C(C)C1CCC2C1(CCC3C2CCC4C3(CCC(C4)O)C)C)O)O'
p46
aS'CC(C)C(C)C(C(C(C)C1CCC2C1(CCC3C2CCC4C3(CCC(=O)C4)C)C)O)O'
p47
aS'CC(C1CCC2C1(CCC3C2CCC4C3(CCC(C4)O)C)C)O'
p48
aS'CC(C1CCC2C1(CCC3C2CCC4=CC(=O)CCC34C)C)O'
p49
aS'CC(C)C(C)CC(C(C)C1CCC2C1(CCC3C2CC=C4C3(CCC(C4)O)C)C)O'
p50
aS'CC12CCC3C(C1CCC2=O)CCC4=C3C=CC(=C4)O'
p51
aS'CC(=O)C1(CCC2C1(CC(C3C2CCC4=CC(=O)CCC34C)O)C)O'
p52
aS'CC1C2CCC3=C(C2(CCC1O)C)CCC4(C3=CCC4C(C)CCC(=C)C(C)C)C'
p53
aS'CC12CCC3C(C1CCC2=O)CCC4=CC(=C(C=C34)O)O'
p54
aS'CC12CCC(CC1=CCC3C2CCC4(C3CC(C4=O)O)C)O'
p55
aS'CC(C)CCCC(C)C1CCC2C1(C(CC3C2C(CC4=CC(=O)CCC34C)O)O)C'
p56
aS'CC(=O)C1CCC2C1(CCC3C2CC=C4C3(CCC(C4)O)C)C'
p57
aS'CC(CCC=C(C)C)C1CCC2(C1(CCC34C2CCC5C3(C4)CCC(C5(C)C)O)C)C'
p58
aS'CC12CCC(CC1=CCC3C2CCC4(C3CCC4(C(=O)CO)O)C)O'
p59
aS'CC1C2CCC3=C(C2(CCC1=O)C)CCC4(C3CCC4C(C)CCC=C(C)C)C'
p60
aS'CC12CCC3C(C1CCC2=O)C(C=C4C3(CCC(C4)O)C)O'
p61
aS'OCC(=O)[C@@H]3CC[C@@H]4[C@H]2CC[C@H]1CC(=O)CC[C@@]1(C)[C@@H]2[C@@H](O)C[C@@]34C=O'
p62
aS'CC12CCC3C(C1CCC2O)CC(C4=C3C=CC(=C4)O)O'
p63
aS'CC(CO)C(C)C(C(C(C)C1CCC2C1(CCC3C2CC(=O)C4C3(CC(C(C4)O)O)C)C)O)O'
p64
aS'CC12CCC(=O)C=C1CCC3C2C(CC4(C3CCC4C(=O)CO)C)O'
p65
aS'CC(=O)C1(CCC2C1(CCC3C2CC=C4C3(CCC(C4)O)C)C)O'
p66
aS'CC(C)CCCC(C)C1CCC2C1(CCC3=C2CCC4C3(CCC(C4(C)C)O)C)C'
p67
aS'CC(C)CCCC(C)C1CCC2C1(CCC3C2C(CC4=CC(=O)CCC34C)O)C'
p68
aS'CC12CCC3C(C1CCC2O)CCC4=CC(=O)CCC34C'
p69
aS'CC12CCC(CC1CCC3C2CCC4(C3CCC4C(=O)CO)C)O'
p70
aS'CC12CCC3C(C1CCC2C(=O)CO)CC=C4C3(CCC(C4)O)C'
p71
aS'CC(C)C(C)CC(C(C)C1CCC2C1(CCC3C2CC(=O)C4C3(CCC(C4)O)C)C)O'
p72
aS'CC12CCC3C(C1CC(C2=O)O)CCC4=C3C=CC(=C4)O'
p73
aS'CC12CCC(=O)C=C1CCC3C2C(CC4(C3CCC4C(=O)CO)C=O)O'
p74
aS'CC1C(CCC2(C1CC=C3C2CCC4(C3CCC4C(C)CCC(=C)C(C)C)C)C)O'
p75
aS'CC=C(CCC(C)C1CCC2C1(CCC3C2=CCC4C3(CCC(C4C)O)C)C)C(C)C'
p76
aS'CC(C)CCCC(C)C1CCC2C1(CCC3C2=CCC4C3(CCC(C4)O)C)C'
p77
aS'CC(C)C(C)CC(C(C)C1CCC2C1(CCC3C2CCC4=CC(=O)CCC34C)C)O'
p78
aS'CC(=O)C1CCC2C1(CCC3C2CCC4=CC(=O)CCC34C)C'
p79
aS'CC(CCC=C(C)C)C1CCC2C1(CCC3=C2CCC4C3(CCC(C4(C)C)O)C)C'
p80
aS'CC(C)CCCC(C)C1CCC2C1(CCCC2=CC=C3CC(CCC3=C)O)C'
p81
aS'CC(CCCC(C)C1CCC2C1(CCC3C2CC=C4C3(CCC(C4)O)C)C)CO'
p82
aS'CC(CCCC(C)C1CCC2C1(CCC3C2C(C=C4C3(CCC(C4)O)C)O)C)CO'
p83
aS'CC(CO)C(C)C(C(C(C)C1CCC2C1(CCC3C2COC(=O)C4C3(CC(C(C4)O)O)C)C)O)O'
p84
aS'CC(CCCC(C)(C)O)C1CCC2C1(CCCC2=CC=C3CC(CC(C3=C)O)O)C'
p85
aS'CC(C)C(=C)C=CC(C)C1CCC2C1(CCC3C2=CC=C4C3(CCC(C4)O)C)C'
p86
aS'CCC(CCC(C)C1CCC2C1(CCC3C2CC=C4C3(CCC(C4)O)C)C)C(C)C'
p87
aS'CC(C)C(CCC(C)C1CCC2C1(CCC3C2C(CC4=CC(=O)CCC34C)O)C)O'
p88
aS'CC(CCC=C(C)C)C1CCC2(C1(CCC3=C2CCC4C3(CCC(C4(C)C)O)C)C)C'
p89
aS'CC(CCC=C(C)C)C1CCC2C1(CCC3C2=CCC4C3(CCC(C4)O)C)C'
p90
aS'CC12CCC(=O)CC1CCC3C2C(=O)CC4(C3CCC4(C(=O)CO)O)C'
p91
aS'CC(C)C(=C)CCC(C)C1CCC2C1(CCC3C2CC=C4C3(CCC(C4)O)C)C'
p92
aS'CC(C)C(C)C(C(C(C)C1CCC2C1(CCC3C2COC(=O)C4C3(CC(C(C4)O)O)C)C)O)O'
p93
aS'CC12CCC3C(C1CC(C2O)O)CCC4=C3C=CC(=C4)O'
p94
aS'CC(=O)C1CCC2C1(CC(C3C2CCC4=CC(=O)CCC34C)O)C'
p95
aS'CC(CCCC(C)(C)O)C1CCC2C1(CCC3C2CC=C4C3(CCC(C4)O)C)C'
p96
aS'CC(C)C(C)CCC(C)C1CCC2C1(CCC3C2CC=C4C3(CCC(C4)O)C)C'
p97
aS'CC(C)C(CCC(C)C1CCC2C1(CCC3C2C(C=C4C3(CCC(C4)O)C)O)C)O'
p98
aS'CC12CCC(=O)C=C1CCC3C2CCC4(C3CCC(=O)O4)C'
p99
aS'CC=C(CCC(C)C1CCC2C1(CCC3C2=CC=C4C3(CCC(C4)O)C)C)C(C)C'
p100
aS'CC(C1CCC2C1(CCC3C2CCC4C3(CCC(=O)C4)C)C)O'
p101
aS'CC12CCC3C(C1CCC2O)CCC4=CC(=C(C=C34)O)O'
p102
aS'CC(=O)C1CCC2C1(CCC3C2C(C=C4C3(CCC(C4)O)C)O)C'
p103
aS'CC12CCC(=O)C=C1CCC3C2CCC4(C3CCC4=O)C'
p104
aS'CC12CCC(CC1CCC3C2C(CC4(C3CCC4(C(=O)CO)O)C)O)O'
p105
aS'CC12CCC(=O)CC1CCC3C2CCC4(C3CCC4O)C'
p106
aS'CC(CCCC(C)C1CCC2C1(CCC3C2C(CC4=CC(=O)CCC34C)O)C)CO'
p107
aS'CC(CCC(C(C)(C)O)O)C1CCC2C1(CCCC2=CC=C3CC(CC(C3=C)O)O)C'
p108
aS'CC1C2CCC3=C(C2(CCC1O)C)CCC4(C3(CCC4C(C)CCC(=C)C(C)C)C)C'
p109
aS'CC1C2CCC3=C(C2(CCC1O)C)CCC4(C3CCC4C(C)CCC(=C)C(C)C)C'
p110
aS'CC12CCC3C(C1CCC2O)CCC4=C3C=CC(=C4)O'
p111
aS'CC(C)CCCC(C)C1CCC2C1(CCC3C2CC=C4C3(CCC(C4)O)C)C'
p112
aS'CCC(C=CC(C)C1CCC2C1(CCC3C2CC=C4C3(CCC(C4)O)C)C)C(C)C'
p113
aS'CC(CCCC(C)C(=O)O)C1CCC2C1(CCC3C2CC=C4C3(CCC(C4)O)C)C'
p114
aS'CC(C)C(C)C(C(C(C)C1CCC2C1(CCC3C2CCC4C3(CC(C(C4)O)O)C)C)O)O'
p115
aS'CC(C)C(=C)CCC(C)C1CCC2C1(CCC3C2=CC=C4C3(CCC(C4)O)C)C'
p116
aS'CC(=O)C1(CCC2C1(CCC3C2CCC4=CC(=O)CCC34C)C)O'
p117
aS'CC(CCC=C(C)C)C1CC=C2C1(CCC3=C2CCC4C3(CCC(C4(C)C)O)C)C'
p118
aS'CC(C)CCCC(C)C1CCC2C1(CCC3C2=CC=C4C3(CCC(C4)O)C)C'
p119
aS'CC12CCC(=O)CC1CCC3C2CCC4(C3CCC4=O)C'
p120
aS'CC12CCC3C(C1CCC2O)CC=C4C3(CCC(C4)O)C'
p121
aS'CC(C)CCCC(C)C1CCC2C1(CCC3C2C(CC4C3(CCC(C4)O)C)O)C'
p122
aS'CC(CCCC(C)(C)O)C1CCC2C1(CCC3C2C(C=C4C3(CCC(C4)O)C)O)C'
p123
aS'CC(CCCC(C)(C)O)C1CCC2C1(CCC3C2C(CC4=CC(=O)CCC34C)O)C'
p124
aS'CC=C(CCC(C)C1CCC2C1(CCC3C2CC=C4C3(CCC(C4)O)C)C)C(C)C'
p125
aS'CC12CCC3C(C1CCC2C(=O)CO)CCC4=CC(=O)CCC34C'
p126
a.