(lp0
S'CC(C)C(C)CCC(C)C1CC=C2C3CCC4CC(O)CCC4(C)C3CCC21C'
p1
aS'CC(C)=CCCC(C)C1CCC2C3CCC4CC(O)CCC4(C)C3CCC12C'
p2
aS'CC(CCCC(C)C(=O)O)C1CCC2C1(CCC3C2C(CC4C3(CCC(C4)O)C)O)C'
p3
aS'CC12CC(O)C3C(CCC4=CC(=O)C=CC43C)C1CCC2(O)C(=O)COC(=O)CCCc1ccc(N(CCCl)CCCl)cc1'
p4
aS'CC(C)CCCC(C)C1CC(C)(O)C2C3=CCC4CC(O)CCC4(C)C3CCC12C'
p5
aS'CC12CCC3C(CC=C4C(O)CCCC43C)C1CCC2=O'
p6
aS'CC(C)C(C)C(C(C(C)C1CCC2C1(CCC3C2CC(=O)C4C3(CC(C(C4)O)O)C)C)O)O'
p7
aS'COC(=O)C(CCCC(C)C)C1CCC2C3CCC4CC(=O)C=CC4(C)C3CCC12C'
p8
aS'C=C(CCC(C)C)C(C)C1CCC2C3CC=C4CC(O)CCC4(C)C3CCC12C'
p9
aS'CC(C)CC(=O)CC(C)(O)C1CCC2C3CC(O)C4CC(O)CCC4(C)C3=CCC21C'
p10
aS'CC(=O)OCC12CCC3C(C1C(OC(C)=O)CC2C(C)CCCC(C)C)C(OC(C)=O)C=C1CC(O)CCC13C'
p11
aS'C=CCOC(=O)OC1CCC2(C)C(=CCC3C4CCC(C(C)CCCC(C)C)C4(C)CCC32)C1'
p12
aS'CC=CC(O)C(C)C1CCC2C3=CC=C4CC(OCOC)CCC4(C)C3CCC21C'
p13
aS'CC(=O)C1C(C#N)CC2C3CC=C4CC(O)CCC4(C)C3CCC21C'
p14
aS'C=C1CC2C3CCC(=O)C3(C)CCC2C2(C)C=CC(=O)C=C12'
p15
aS'CC(C)C(C)C(C(C(C)C1CCC2C1(CCC3C2CC=C4C3(CCC(C4)O)C)C)O)O'
p16
aS'CC(C)(O)CCC(=O)C(C)(O)C1C(O)CC2(C)C3CC=C4C(CC(O)C(=O)C4(C)C)C3(C)C(=O)CC12C'
p17
aS'CC=C(C(C)CC)C(C)CC(C)C1CCC2C3CC=C4CC(O)CCC4(C)C3CCC12C'
p18
aS'CC(C)CCCC(C)C1CCC2C3CC=C4CC(OC(=O)NCCOCCOCCNc5ccc([N+](=O)[O-])c6nonc65)CCC4(C)C3CCC12C'
p19
aS'Cl.N#Cc1ccc(C2CCCc3cncn32)cc1'
p20
aS'CC(C)CCCC(C)C1CCC2C3CC=C4CC(OC(=O)CC[NH+]5CC(C)CC(C)C5)CCC4(C)C3CCC12C'
p21
aS'CC(CCCC(C)C1CCC2C3CC=C4CC(OS(=O)(=O)O)CCC4(C)C3CCC12C)COS(=O)(=O)O'
p22
aS'C=CC(CCC(C)C1CCC2C3CCC4CC(O)CCC4(C)C3CCC12C)(OO)C(C)C'
p23
aS'CC(C)CCCC(C)C1CCC2C3CC=C4CC(O)CC(O)C4(C)C3CCC12C'
p24
aS'CCCCCC=CCC=CCCCCCCCCCCCC(=O)OCC1OC(OC2CCC3(C)C(=CCC4C5CCC(C(C)CCCC(C)C)C5(C)CCC43)C2)C(O)C(O)C1O'
p25
aS'CC(C)=CCCC(C)C1CCC2(C)C3CCC4C5(CC35CCC12C)CCC(O)C4(C)CO'
p26
aS'CCCC=C(C)C1CCC2C3CC=C4CC(OC(C)=O)CCC4(C)C3CCC12C'
p27
aS'CCOC(S)=C1CC2(C)C(CCC3C4CCC(C(C)CCCC(C)C)C4(C)CCC32)CC1=O'
p28
aS'CCCCOc1ccc(C(=O)SC2CCC3(C)C(=CCC4C5CCC(C(C)CCCC(C)C)C5(C)CCC43)C2)cc1'
p29
aS'CCCCCCCCCCCCCCOC1CCC2(C)C(=CCC3C4CCC(C(C)CCCC(C)C)C4(C)CCC32)C1'
p30
aS'CC(C)CCCC(C)C1CCC2C3CC=C4CC(N(C(=O)[O-])c5ccc(S(=O)(=O)c6ccc(F)cc6)cc5)CCC4(C)C3CCC12C'
p31
aS'COc1ccc2c(c1)CCC1C3CC(O)C(O)C3(C)CCC21'
p32
aS'[H]C([H])([H])C([H])(CCCC(C)C1CCC2C3=C(CCC21C)C1(C)CCC(O)CC1CC3)C([H])([H])[H]'
p33
aS'CC(C)CCCC(C)C1CCC2C3CC=C4CC(OC(=O)c5cc([N+](=O)[O-])c(N6CC6)c([N+](=O)[O-])c5)CCC4(C)C3CCC12C'
p34
aS'[H+].CC(CO)CCC(=O)C(C)C1C(=O)CC2C3CC=C4CC(O)CCC4(C)C3CCC12C'
p35
aS'CC(CCCC(C)(C)O)C1CCC2C3C(CCC21C)C1(C)CCC(O)CC1=CC3O'
p36
aS'CC(C)CCCC(C)C1CCC2C3CC=C4CC(OP(=O)(O)OP(=O)(O)O)CCC4(C)C3CCC12C'
p37
aS'CC(C)CCCC(C)C1CCC2C3C(=O)C=C4CC(O)CCC4(C)C3CCC12C'
p38
aS'CC(C)CC1CC1(C)C1CCC2C3CC=C4CC(O)CCC4(C)C3CCC12C'
p39
aS'COC1CC(OC2CCC3(C)C(=CCC4(O)C3C(O)C(O)C3(C)CC(O)(C(C)=O)CC34O)C2)OC(C)C1OC1CC(OC)C(OC2OC(C)C(O)C(OC)C2O)C(C)O1'
p40
aS'CC(C)CCCC(C)C1CCC2C1(CCC3=C2CCC4C3(CCC(C4(C)C)O)C)C'
p41
aS'CC(CO)CCCC(C)C1CCC2C3C(=O)C=C4CC(O)CCC4(C)C3CCC12C'
p42
aS'C=C(CC(C)C)CC(C)C1CCC2C3CC=C4C(C)C(O)CCC4(C)C3CCC12C'
p43
aS'CC(C)CCCC(C)C1CCC2C3CC=C4CC(OC(=O)CN)CCC4(C)C3CCC12C'
p44
aS'Cc1ccc2ccc3c(c2c1)CC1CCC2C4CCC(C(C)CCCC(C)C)C4(C)CCC2C1(C)C3'
p45
aS'CC(CO)CCCC(C)C1CCC2C3C(O)CC4=CC(=O)CCC4(C)C3CCC12C'
p46
aS'CC(C)C(O)CCC(C)C1CCC2C3CC(O)=C4CC(O)CCC4(C)C3CCC12C'
p47
aS'CC1=C2CCC3C(CCC4CC(O)CCC43C)C2CC1=O'
p48
aS'CC(C)CCCC(C)C1CCC2C3CCC4CCC=CC4(C)C3CCC12C'
p49
aS'CC(C)CCCC(C)C1CCC2C3=C(CCC21C)C1(C)CCC(O)C(C)(C)C1CC3'
p50
aS'CC(C)CCCC(C)(O)C1CCC2C3CC=C4CC(O)CCC4(C)C3CCC12C'
p51
aS'CC(C)CCCC(C)C1CCC2C3CC=C4CC(OCCCN)CCC4(C)C3CCC12C'
p52
aS'CC12C=CC3=C4CCC(=O)C=C4CCC3C1CCC2(C)O'
p53
aS'C=C(C)C(CCC(C)C1CCC2C3CC=C4CC(O)CCC4(C)C3CCC12C)C(C)C'
p54
aS'CC(CCCC(C)(C)O)C1CCC2C1(CCCC2=CC=C3CC(CC(C3=C)O)O)C'
p55
aS'CC(CS)CCCC(C)C1CCC2C3CC=C4CC(O)CCC4(C)C3CCC12C'
p56
aS'CC(C)CCCC(C)C1CCC2C3C(=O)C=C4CC(OC(=O)c5ccccc5)CCC4(C)C3CCC12C'
p57
aS'CC(C)CCCC(C)C1CCC2C3CC=C4CC(OP(=O)(O)OCCN(C)C)CCC4(C)C3CCC12C'
p58
aS'COc1cccc(Oc2c(C)oc3cc(OCC(=O)OC4CCC5(C)C(=CCC6C7CCC(C(C)CCCC(C)C)C7(C)CCC65)C4)ccc3c2=O)c1'
p59
aS'CC(=O)SCC1=CCC2CCC3C4CCC(C(C)CCCC(C)C)C4(C)CCC3C2(C)C1'
p60
aS'CC1CC2C3CCC(=O)C3(C)CCC2C2(C)C=CC(=O)C=C12'
p61
aS'CC(C)CCCC(C)C1CCC2C3CC(O[Si](C)(C)C)C4CC=CCC4(C)C3CCC12C'
p62
aS'CCC=CCC=CCC=CCCCCCCCC(=O)OCC1OC(OC2CCC3(C)C(=CCC4C5CCC(C(C)CCCC(C)C)C5(C)CCC43)C2)C(O)C(O)C1O'
p63
aS'CC(C)=CCCC(C)C1CCC2C3CCC4CCCCC4(C)C3CCC12C'
p64
aS'COC1=C(C#N)CC2(C)C(CCC3C4CCC(C(C)CCCC(C)C)C4(C)CCC32)C1'
p65
aS'CC(=O)OC1CCC2(C)C(=CCC3C2=CCC2(C)C(C(C)CCCC(C)C)CCC32)C1'
p66
aS'CC(C)C(C)C=CC(C)C1CCC2C3CCC4C(C)(O)C(O)CCC4(C)C3CCC21C'
p67
aS'CC(C)CCCC(C)C1CCC2C3C(OO)CC4=CC(O)CCC4(C)C3CCC12C'
p68
aS'CC12CCC3C(C1CCC2O)CCC4=CC(=C(C=C34)O)O'
p69
aS'CC(=O)C1(O)CCC2C3CC=C4CC(O)CCC4(C)C3CCC21C'
p70
aS'[Na+].CC(C=CC(C)C1CC(O)C2C1(C)CCC1C3(C)CCC(OC4OCC(O)C(O)C4O)CC3C(O)CC21O)COS(=O)(=O)[O-]'
p71
aS'CC(CCCC(C)(O)CO)C1CCC2C3CC=C4CC(O)CCC4(C)C3CCC12C'
p72
aS'CC(C)CCCC(C)C1CCC2C3CCC4=CC(Cl)CCC4(C)C3CCC12C'
p73
aS'Cc1cnc2c(c1)CC1(C)C(CCC3C4CCC(C(C)CCCC(C)C)C4(C)CCC31)C2'
p74
aS'CC(C)CCCC(C)C1CCC2C3CC=C4CC(C5C(=O)NC(=O)NC5=O)CCC4(C)C3CCC12C'
p75
aS'CC12CCC3C4CCC(=O)C=C4CCC3C1CCC2O'
p76
aS'CC12CCC3C(C1CCC2O)CCC4=C3C=CC(=C4)O'
p77
aS'CC(C(O)CCC(C)(C)F)C1CCC2C3CC=C4CC(O)CCC4(C)C3CCC12C'
p78
aS'[H]C([H])([H])C([H])(CCCC(C)C1CCC2C3CC=C4C(O)C(O)CCC4(C)C3CCC12C)C([H])([H])[H]'
p79
aS'[Na+].CC(C)CC=CC(C)C1CCC2C1(C)CCC1C34COC21CC(O)C3(O)CC(OS(=O)(=O)[O-])CC4'
p80
aS'CC(C)C(=C)CCC(C)C1CCC2C1(CCC3C2=CC=C4C3(CCC(C4)O)C)C'
p81
aS'CC(C)CCCC(C)C1CCC2C3CCC4=CC(=NNC(N)=O)CCC4(C)C3CCC12C'
p82
aS'CC(C)CCCC(C)C1CCC2C3=CCC4C(C)C(O)CCC4(C)C3CCC21C'
p83
aS'CC(C)CCCC(C)C1CCC2C3C(O)C=C4CC(Cl)CCC4(C)C3CCC12C'
p84
aS'CC(=O)OC1CCCC2(CO)C1=CCC1C3CCC(=O)C3(C)CCC12'
p85
aS'CC(C)CCCC(C)C1CCC2C3CCC4CC(=O)C=CC4(C)C3CCC12C'
p86
aS'CCCCOCCOC(=O)OC1CCC2(C)C(=CCC3C4CCC(C(C)CCCC(C)C)C4(C)CCC32)C1'
p87
aS'CC(O)C1(O)CCC2C3CCC4CC(O)CCC4(C)C3CCC21C'
p88
aS'CC(C)(O)CCC(OP(=O)(O)O)C(C)(O)C1CCC2(O)C3=CC(=O)C4CC(O)C(O)CC4(C)C3CCC12C'
p89
aS'CC(CCCC(C)C)C1CCC2C3CC=C4CC(O)CCC4(C)C3CCC12C'
p90
aS'CC(C)CCCC(C)C1CCC2C3CC=C4CC(OCCCCCCSC5OC(CO)C(O)C(O)C5O)CCC4(C)C3CCC21C'
p91
aS'CC(C)CCCC(C)C1CCC2C3=CCC4C(C(=O)O)C(O)CCC4(C)C3CCC21C'
p92
aS'CC(C)CCCC(C)C1CCC2C3CC=C4CC(OC(=O)c5c6ccccc6cc6ccccc65)CCC4(C)C3CCC12C'
p93
aS'CC(C)C(CCC(C)C1CCC2C3CC=C4CC(O[Si](C)(C)C)CCC4(C)C3CCC12C)O[Si](C)(C)C'
p94
aS'CC(C)CCCC(C)C1CCC2C3C(=O)C=C4CC(=O)CCC4(C)C3CCC21C'
p95
aS'CCCCCCCCCCCCCCCCCCCCCCCCCC(=O)OC1CCC2(C)C(=CCC3C4CCC(C(C)CCCC(C)C)C4(C)CCC32)C1'
p96
aS'CC12CCC3C(CC=C4CC(OS(=O)(=O)O)CCC43C)C1CCC2=O'
p97
aS'CC(=O)NC1C(OS(=O)(=O)O)CC(OC2CCC3(C)C(=CCC4C5CCC(C(C)CCCC(C)C)C5(C)CCC43)C2)(C(=O)O)OC1C(OS(=O)(=O)O)C(COS(=O)(=O)O)OS(=O)(=O)O'
p98
aS'CCCCCCCCCCCCCCCCCCCCCCCCCCCCCC(=O)OC1CCC2(C)C(=CCC3C4CCC(C(C)CCCC(C)C)C4(C)CCC32)C1'
p99
aS'CC(C)CCCC(C)C1CCC2C3CC=C4CC(OC(=O)CCl)CCC4(C)C3CCC12C'
p100
aS'CC1C2CCC3=C(C2(CCC1O)C)CCC4(C3CCC4C(C)CCC=C(C)C)C'
p101
aS'CC(C)CCCC(C)C1CCC2C3CC=C4CC(OC(=O)CCCc5ccc6ccc7cccc8ccc5c6c78)CCC4(C)C3CCC12C'
p102
aS'CC(CCC(C(C)(C)O)O)C1CCC2C1(CCCC2=CC=C3CC(CCC3=C)O)C'
p103
aS'CC(=O)OC1CCC2(C)C(=CCC3C4CCC(C(C)CCCC(C)C)C4(C)CCC32)C1'
p104
aS'CC(C)CCCC(C)C1CCC2=C3CCC4C(C)(C)C(O)CCC4(C)C3CCC21C'
p105
aS'CC(C)CCCC(C)C1CCC2C3CC(F)=C4CC(O)CCC4(C)C3CCC12C'
p106
aS'CC(C)CCCC(C)C1CCC2C3CC=C4CC(OC(=O)CCCCC(=O)OC5CCC6(C)C(=CCC7C8CCC(C(C)CCCC(C)C)C8(C)CCC76)C5)CCC4(C)C3CCC12C'
p107
aS'CC(=O)OC1CCC2(C)C3=CCC4(C)C(CCC4C(C)(O)CCCC(C)C)C3CC(OC(C)=O)C2C1'
p108
aS'CC(C)CCCC(C)C1CCC2C3CCC4=CC(S)CCC4(C)C3CCC12C'
p109
aS'Cc1ccc2c(n1)CC1CCC3C4CCC(C(C)CCCC(C)C)C4(C)CCC3C1(C)C2'
p110
aS'CC(C)CCCC(C)C1CCC2C3CCC4Cc5nc6cc([N+](=O)[O-])ccc6nc5CC4(C)C3CCC12C'
p111
aS'CC(C)CCCC(C)C1CC(O)C2(CO)C3=CCC4CC(O)CCC4(C)C3CCC12C'
p112
aS'CC(C)CCCC(C)C1CCC2C3CC=C4CC(OC(=O)CC(C)C)CCC4(C)C3CCC21C'
p113
aS'CC(C)CCC(O)C(C)C1CCC2C3CC=C4CC(O)CCC4(C)C3CCC12C'
p114
aS'C#CC1(O)CCC2C3CCC4=CC(=O)CCC4=C3C=CC21C'
p115
aS'C=C(CCC(C)C1CCC2C3C(OC(C)=O)C=C4CC(O)CCC4(C=O)C3CCC12C)C(C)C'
p116
aS'CC(C)CC=CC(C)C1CCC2C3CCC4CC(O)CCC4(C)C3CCC12C'
p117
aS'C=C(C)C(CC)CCC(C)C1C(O)CC2C3CCC4CC(O)CCC4(C)C3CC(O)C21C'
p118
aS'CC(C)C(C)C(C(C(C)C1CCC2C1(CCC3C2CCC4C3(CCC(C4)O)C)C)O)O'
p119
aS'CC(C(O)CCC(C)(C)O)C1CCC2(O)C3=CC(=O)C4CC(O)CCC4(C)C3CCC12C'
p120
aS'CC(CCCC(C)(C)O)C1CCC2C3CCC4=CC(=O)CCC4(C)C3CCC12C'
p121
aS'CC(C)CCCC(C)C1CCC2C3CC(=O)C4Cc5[nH]c6ccccc6c5CC4(C)C3CCC12C'
p122
aS'CC(=O)OC1(C(C)=O)CCC2C3CC(C)C4=CC(=O)CCC4(C)C3CCC21C'
p123
aS'CCCC1CC2C3CCC(=O)C3(C)CCC2C2(C)C=CC(=O)C=C12'
p124
aS'CC(C)CCCC(C)C1CCC2(O[Si](C)(C)C)C3=CC(=O)C4CC(O[Si](C)(C)C)C(O[Si](C)(C)C)CC4(C)C3CCC12C'
p125
aS'CC(C)CCCC(C)C1CCC2C1(CCC3C2=CC=C4C3(CCC(C4)O)C)C'
p126
aS'CC(=O)OC1CCC2(C=O)C(=CCC3C4CCC(C(C)CCCC(C)C)C4(C)CCC32)C1'
p127
aS'C=C1CC2C3C=C(C)C4=CC(=O)CCC4(C)C3CCC2(C)C1(OC(C)=O)C(C)=O'
p128
aS'CC(O)(CO)CCC(O)C(C)(O)C1CCC2(O)C3=CC(=O)C4CC(O)C(O)CC4(C)C3C(O)CC12C'
p129
aS'COC(=O)C(C)CCCC(C)C1CCC2C3CC=C4CC(OC(C)=O)CCC4(C)C3CCC12C'
p130
aS'CC(=O)C1CCC2C3CC=C4CC(O)CCC4(C)C3CCC12C'
p131
aS'CC(C)CCC(O)C(C)C1CCC2C3C(O)C=C4CC(O)CCC4(C)C3CCC12C'
p132
aS'CC(=O)C1(OC(=O)c2ccccc2)CCC2C3CCC45OC4C(=O)CCC5(C)C3CCC21C'
p133
aS'CC(CCCC(C)C1CCC2C3=CCC4CC(=O)CCC4(C)C3CCC21C)C(=O)O'
p134
aS'CC(C)CCCC(C)C1CCC2C3CC=C4CC(OP(=O)([O-])OCC[N+](C)(C)C)CCC4(C)C3CCC12C'
p135
aS'CC(=CCCC(C)C)C1CCC2C3CC(O)C4CC(O)CCC4(C)C3CCC12C'
p136
aS'C#[N+]C(Cc1ccccc1)C(=O)OC1CCC2(C)C(=CCC3C4CCC(C(C)CCCC(C)C)C4(C)CCC32)C1'
p137
aS'CC(C(O)CCC(C)(C)OC1OC(CO)C(O)C(O)C1O)C1CCC2(O)C3=CC(=O)C4CC(O)C(O)CC4(C)C3CCC12C'
p138
aS'C#[N+]CCOP(=O)(OCC1OC(n2cc(C)c(=O)[nH]c2=O)CC1N=[N+]=[N-])OC1CCC2(C)C(=CCC3C4CCC(C(C)CCCC(C)C)C4(C)CCC32)C1'
p139
aS'CC(C)CCCC(C)C1CCC2C3CCC4CC=CC(=O)C4(C)C3CCC12C'
p140
aS'CC(C)CCCC(C)C1CCC2C3C(=O)C=C4CC(O[Si](C)(C)C)CCC4(C)C3CCC12C'
p141
aS'CC(CCCC(C)(C)O)C1CCC2(O)C3=CC(=O)C4CC(O)C(O)CC4(C)C3CCC12C'
p142
aS'CC(C)CCCC(C)C1CCC2C3CCC4Cc5c(cc(N)c6ccccc65)CC4(C)C3CCC12C'
p143
aS'C=C(C(C)C)C(O)CC(C)C1CCC2C3CC=C4CC(O)CCC4(C)C3CCC12C'
p144
aS'CC(C)CCCC(C)C1CCC2C3CC=C4CC(O)CCC4(CO)C3CCC12C'
p145
aS'CC(C)CCCC(C)C1CC(O)C2=C3CCC4CC(O)CCC4(C)C3CCC21C'
p146
aS'CC1(O)CCC2C3CCC4Cc5[nH]ncc5CC4(C)C3CCC21C'
p147
aS'CC(=O)OCC(C)CCCC(C)C1C(OC(C)=O)CC2C3CC=C4CC(OC(C)=O)CCC4(C)C3CCC21C'
p148
aS'CC(C)CC(=O)CC(C)C1CC=C2C3=C(CCC21C)C1(C)CCC(O)CC1CC3'
p149
aS'CC(C)CCCC(C)C1CCC2C3CC=C4CC(OC(=O)N(CCCl)CCCl)CCC4(C)C3CCC12C'
p150
aS'CC(=O)C1(O)CCC2C3CCC4=CC(=O)CCC4(C)C3(F)C(O)CC21C'
p151
aS'CC(=O)C1CCC2C1(CCC3C2C(C=C4C3(CCC(C4)O)C)O)C'
p152
aS'CC(C)C(=O)CCC(C)C1CCC2C3CC=C4CC(O)CCC4(C)C3CCC21C'
p153
aS'CCCC(=O)OC1CCC2(C)C(=CCC3C4CCC(C(C)CCCC(C)C)C4(C)CCC32)C1'
p154
aS'CC(C)CCCC(C)C1CCC2C3=CC(O)C4C(O)C(O)CCC4(C)C3CCC21C'
p155
aS'CC(C)CCCC(C)C1CCC2C3CC(=O)C4Cc5[nH]c6ccc(Br)cc6c5CC4(C)C3CCC12C'
p156
aS'CC(C)CCCC(C)C1CCC2C3CCC4=CC(=NO)CCC4(C)C3CCC12C'
p157
aS'CC(C)CCCC(C)C1CCC2C3CCC4=C(Br)C(=O)CCC4(C)C3CCC12C'
p158
aS'CCCCCC=CCC=CCCCCCCCCCCCC(=O)OC1CCC2(C)C(=CCC3C4CCC(C(C)CCCC(C)C)C4(C)CCC32)C1'
p159
aS'CC(C)CCCC(C)C1CCC2C3CC=C4CC(=O)CCC4(C)C3CCC12C'
p160
aS'CC(C)CCCC(C)C1CCC2C3CC(=O)C4C=CCCC4(C)C3CCC12C'
p161
aS'CC(C)CCCC(C)C1CCC2=C3CCC4CCCCC4(C)C3CCC21C'
p162
aS'CC(C)CCCC(C)C1CCC2C3CC([N+](=O)[O-])C4Cc5[nH]c6ccc(Cl)cc6c5CC4(C)C3CCC12C'
p163
aS'CC(C)CCCC(C)C1CCC2C3CC(=O)C4c5c6ccccc6n(C)c5CCC4(C)C3CCC12C'
p164
aS'CC(CCCC(C)C(=O)O)C1CCC2C3CCC4=CC(=O)CCC4(C)C3CCC12C'
p165
aS'CC(C)CCCC(C)C1CCC2C3CC=C4CC(O)CCC4(CI)C3CCC12C'
p166
aS'CC(C)CCCC(C)C1CCC2C3CC=C4CC(OC(=O)CCC(=O)OCC5CC(OP(=O)([O-])OCC6CC(OP(=O)([O-])OCC7CC(O)C(n8cnc9c8ncnc9N)O7)C(n7cnc8c7ncnc8N)O6)C(n6cnc7c6ncnc7N)O5)CCC4(C)C3CCC12C'
p167
aS'Cc1cccc2cc3c(cc12)CC1CCC2C4CCC(C(C)CCCC(C)C)C4(C)CCC2C1(C)C3'
p168
aS'[Na+].[Na+].CC(C)CCCC(COS(=O)(=O)[O-])C1CCC2C3CC=C4C(O)C(OS(=O)(=O)[O-])C(O)CC4(C)C3CCC21C'
p169
aS'CC(C)CCCC(C)C1CCC2C3CC=C4C(NCCCC(=O)O)C(O)CCC4(C)C3CCC21C'
p170
aS'CCC=CCC=CCC=CCCCCCCCCCC(=O)OCC1OC(OC2CCC3(C)C(=CCC4C5CCC(C(C)CCCC(C)C)C5(C)CCC43)C2)C(O)C(O)C1O'
p171
aS'CC(C)CCCC(C)C1CCC2(C)C3=C(CCC12C)C1(C)CCC(O)C(C)(C)C1CC3'
p172
aS'CCC(Cc1c(I)cc(I)cc1I)C(=O)ONC1(O)CCC2(C)C(=CCC3C4CCC(C(C)CCCC(C)C)C4(C)CCC32)C1'
p173
aS'CC12CCC3c4ccc(O)cc4CCC3C1CCC2=O'
p174
aS'CC#CCC(C)C1CCC2C3CC=C4CC(O)CCC4(C)C3CCC12C'
p175
aS'CC(C)CCCC(C)C1CCC2C3CC=C4CC(OC(=O)CCCCl)CCC4(C)C3CCC12C'
p176
aS'CC(C)(CCC(O[Si](C)(C)C)C(C)(O[Si](C)(C)C)C1CCC2(O[Si](C)(C)C)C3=CC(=O)C4CC(O[Si](C)(C)C)C(O[Si](C)(C)C)CC4(C)C3CCC12C)O[Si](C)(C)C'
p177
aS'CC12CCCC1C1CCc3cc(O)ccc3C1CC2'
p178
aS'CC(C)CCCC(C)C1CCC2C3CC=C4CC(OC(=O)OCC(C)C)CCC4(C)C3CCC12C'
p179
aS'CC(=O)OC1CCC2(C)C(C1)C(OC(C)=O)CC1=C3CCC(C(C)CCCC(C)C)C3(C)CCC12'
p180
aS'CC(CO)CCCC(C)C1C(O)C(O)C2C1(C)CCC1C3(C)CCC(OC4OCC(O)C(O)C4O)C(O)C3=CCC21O'
p181
aS'COC(=O)CCC(=O)OC1CCC2(C)C(=CCC3C4CCC(C(C)CCCC(C)C)C4(C)CCC32)C1'
p182
aS'CC(C)CCCC(C)C1CCC2C3CCC4c5nc6ccc([N+](=O)[O-])cc6nc5CCC4(C)C3CCC12C'
p183
aS'CC(C)(O)CCC(O)C(C)(O)C1CCC2(O)C3=CC(=NO)C4CC(O)C(O)CC4(C)C3CCC12C'
p184
aS'C=CC(=O)OC(=O)CCCC1C2C(O)CC3C4=CCC(C(C)CCCC(C)C)C4(C)CCC3C2(C)CCC1O'
p185
aS'CC(=O)OC1CCC2(C)C(=CCC3C4CCC(C(C)(O)CCCC(C)C)C4(C)CCC32)C1'
p186
aS'CC(C)CCCC(C)C1CCC2C3CC=C4CC(OC(C)C)CCC4(C)C3CCC12C'
p187
aS'CC(C(CCC(C)(C)O)OP(=O)(O)O)C1CCC2(O)C3=CC(=O)C4CC(O)CCC4(C)C3CCC12C'
p188
aS'CC(C)CCCC(C)C1CCC2C3CC=C4CC(OP(=O)(N5CC5)N5CC5)CCC4(C)C3CCC12C'
p189
aS'CC(C)CCCC(C)C1CCC2C3CCC4c5cccnc5CCC4(C)C3CCC12C'
p190
aS'CC(C)CCCC(C)C1CCC2=C3CCC4CC(O)CCC4(C)C3CCC21C'
p191
aS'CC(C)CCCC(C)C1CCC2C3CCC4=CC(=O)CCC4(CO)C3CCC12C'
p192
aS'CC(CCC(O)C(O)C(=O)O)C1CCC2C3CCC4CC(O)CCC4(C)C3CCC12C'
p193
aS'CC(C)CCCC(C)C1CCC2C3CC=C4C(O[Si](C)(C)C)C(O[Si](C)(C)C)CCC4(C)C3CCC12C'
p194
aS'COc1cc(C(=O)OC2C(O)C(O)COC2OC2C(OC(C)=O)C(OC3CC4C5CC=C6CC(OC7OC(COC8OC(CO)C(O)C(O)C8O)C(O)C(O)C7O)CCC6(C)C5CCC4(C)C3(O)C(C)C(=O)CCC(C)C)OCC2O)cc(OC)c1OC'
p195
aS'CCC(C(C)C)C1OC1C(C)C1CC=C2C3=C(CCC21C)C1(C)CCC(O)CC1CC3'
p196
aS'CCC1(c2ccc(N)cc2)CCC(=O)NC1=O.CCC1(c2ccc(N)cc2)CCC(=O)NC1=O'
p197
aS'CC(C)CCCC(C)C1CCC2C3CC=C4CC(OC(=O)OC5CCC6(C)CC7C=CC6(OO7)C5(C)C)CCC4(C)C3CCC12C'
p198
aS'CC12CCC3C(C1CCC2=O)CCC4=CC(=C(C=C34)O)O'
p199
aS'CC(C)CCCC(C)C1CCC2C3CC=C4CC(OC(=O)COc5cc6oc(=O)c7c(c6cc5Cl)CCC7)CCC4(C)C3CCC12C'
p200
aS'CC(C)CCCC(C)C1CCC2C3C(OCCCCCC(=O)NCC(=O)Nc4ccc(C(=O)c5ccc(NC(=O)COCCOCCNC(=O)CCCCC6SCC7NC(=O)NC76)cc5)cc4)C=C4CC(O)CCC4(C)C3CCC12C'
p201
aS'CC(CCC=C(C)C)C1CCC2(C1(CCC34C2CCC5C3(C4)CCC(C5(C)C)O)C)C'
p202
aS'CC12CCC(CC1=CCC3C2CCC4(C3CCC4(C(=O)CO)O)C)O'
p203
aS'CC(C)CCCC(C)C1CCC2C3CC=C4CC(OC(=O)c5cc([N+](=O)[O-])cc([N+](=O)[O-])c5)CCC4(C)C3CCC12C'
p204
aS'CCC=CCC=CCC=CCCCCCC(=O)OCC1OC(OC2CCC3(C)C(=CCC4C5CCC(C(C)CCCC(C)C)C5(C)CCC43)C2)C(O)C(O)C1O'
p205
aS'CC(C)=CCCC(C)C1CCC2(C)C3CCC4C5(CC35CCC12C)CCC(O)C4(C)C(=O)[O-]'
p206
aS'CC(C)CCCC(C)C1CCC2C3CC=C4CC(OC(=O)OCC=Cc5ccccc5)CCC4(C)C3CCC12C'
p207
aS'COC1CCC2(C)C(=CCC3C4CCC(C(C)CCCC(C)C)C4(C)CCC32)C1'
p208
aS'CC12CCC(=O)C=C1CCC3C2C(CC4(C3CCC4C(=O)CO)C=O)O'
p209
aS'[H+].CC(CO)CCC(=O)C(C)C1C(=O)CC2C3CC=C4CC(O)CCC4(C)C3CCC21C'
p210
aS'[H]C([H])([H])C(=CCCC(C)C1CCC2C3CC=C4CC(O)CCC4(C)C3CCC12C)C([H])([H])[H]'
p211
aS'CC(C)CCCC(C)C1CCC2C3C(CCC21C)C1(C)CCC(O)C=C1CC3O'
p212
aS'CC(CCC=C(C)C)C1CCC2C1(CCC3=C2CCC4C3(CCC(C4(C)C)O)C)C'
p213
aS'[H]C([H])([H])C([H])(C([H])([H])[H])C([H])([H])C([H])([H])C(O)C(C)C1CCC2C3CC=C4CC(O)CCC4(C)C3CCC12C'
p214
aS'CC12CCC3C(CCC4CC(=O)C=CC43C)C1CCC2O'
p215
aS'[H]C([H])([H])C([H])(CCC(O)C(C)C1CCC2C3CC=C4CC(O)CCC4(C)C3CCC12C)C([H])([H])[H]'
p216
aS'CC(C)(O)CCC(O)C(C)(O)C1CCC2(O)C3=CC(=O)C4CC(O)C(OC(=O)CCC(=O)O)CC4(C)C3CCC12C'
p217
aS'CCCCCC=CCC=CCCCCCCCC(=O)OC1CCC2(C)C(=CCC3C4CCC(C(C)CCCC(C)C)C4(C)CCC32)C1'
p218
aS'CC(C)CCCC(C)C1CC=C2C3C(O)CC4CCCCC4(C)C3CCC21C'
p219
aS'CCC(CC(O)C(C)C1CCC2C3C=CC4=CC(O)CCC4(C)C3CCC12C)C(C)C'
p220
aS'CC(CCCC(C)C1CCC2C3C(=O)C=C4CC(O)CCC4(C)C3CCC12C)C(=O)O'
p221
aS'CC(C)CCCC(C)C1CCC2C3CC=C4CC(OC(=O)Nc5ccc(S(=O)(=O)O)c6ccccc56)CCC4(C)C3CCC12C'
p222
aS'CC(C)CCCC(C)C1CCC2C3CC=C4CC(OC(=O)OCC(F)(F)F)CCC4(C)C3CCC12C'
p223
aS'CC(CCCC(C)C1CCC2C3CC=C4CC(O)CCC4(C)C3CCC12C)C(=O)O'
p224
aS'CCC(CCC(C)C1CC=C2C3=C(CCC21C)C1(C)CCC(O)CC1CC3)C(C)C'
p225
aS'CC(C)CCCC(C)C1CCC2C3C(O)CC4=CC(O)CCC4(C)C3CC(O)C12C'
p226
aS'[H]C([H])([H])C([H])(C)CCCC(C)C1CCC2C3CC=C4CC(O)CCC4(C)C3CCC12C'
p227
aS'CCOC(=O)C(NS(=O)(=O)c1ccc(C)cc1)(OC1C=C2CCC3C4CCC(C(C)CCCC(C)C)C4(C)CCC3C2(C)CC1)C(F)(F)F'
p228
aS'CC(C)CCCC(C)C1CCC2(CO)C3=C(CCC12C)C1(C)CCC(O)C(C)(C)C1CC3'
p229
aS'CC(C)CCCC(C)(O)C1CCC2C3CC=C4CC(O)CCC4(C)C3CCC21C'
p230
aS'CC(=O)OC1CCC2(C)C3CCC4(C)C(C(C)(O)C(O)CCC(C)(C)O)CCC4(O)C3=CC(=O)C2C1'
p231
aS'CC(C)CCCC(C)C1CC(O)C2(CO)C3C=CC4CC(O)CCC4(C)C3CCC12C'
p232
aS'CCC(CCC(C)C1CCC2C3CC=C4CC(O)CCC4(C)C3CCC12C)C(C)C'
p233
aS'CC12CCC(CC1CCC3C2C(=O)CC4(C3CCC4(C(CO)O)O)C)O'
p234
aS'CC(C)CCCC(C)C1CCC2(O)C3=CCC4CCCCC4(C)C3CCC12C'
p235
aS'C=C(CC(C)C)CC(C)C1CCC2C3CC=C4C(C)C(O)CCC4(C)C3CCC21C'
p236
aS'CC(C)CCCC(C)C1CCC2C3CC=C4CC(OC=O)CCC4(C)C3CCC12C'
p237
aS'C=C(CCC(C)C1CCC2(C)C3=CCC4C(C)C(O)CCC4(C)C3=CCC12C)C(C)C'
p238
aS'CCC(C=CC(C)C1CCC2C1(CCC3C2CC=C4C3(CCC(C4)O)C)C)C(C)C'
p239
aS'CC(C)CCCC(O)(CO)C1CCC2C3CC=C4CC(O)CCC4(C)C3CCC21C'
p240
aS'CNC(=O)OC1CCC2(C)C(=CCC3C4CCC(C(C)CCCC(C)C)C4(C)CCC32)C1'
p241
aS'CC(C)CCCC(C)(O)C1C(O)CC2C3CCC4=CC(=O)C=CC4(C)C3CC(O)C12C'
p242
aS'CC(=O)NC1C(O)C(O)C(OC2CCC3(C)C(=CCC4C5CCC(C(C)CCCC(C)C)C5(C)CCC43)C2)(C(=O)O)OC1C(O)C(O)CO'
p243
aS'CC(=O)OC1CCC2(COS(=O)(=O)c3ccc(C)cc3)C(=CCC3C4CCC(C(C)CCCC(C)C)C4(C)CCC32)C1'
p244
aS'CC(CCCC(C)C1CCC2C3C(CCC12C)C1(C)CCC(O)CC1=CC3O)C(=O)O'
p245
aS'COC1CCC2(C)C(=CCC3C4CCC(C(C)CCCC(C)C)C4(C)CCC32)C1(C)C'
p246
aS'CC(C=CCC(C)C1CCC2C3C(O)CC4CC(O)CCC4(C)C3CCC12C)C(=O)O'
p247
aS'C=CC(O)(CCC(C)C1CCC2C3CC=C4CC(O)CCC4(C)C3CCC12C)C(C)C'
p248
aS'C=C(CC(O)C(C)C1(O)CCC2C3CC=C4CC(O)CCC4(C)C3CCC21C)C(C)C'
p249
aS'CC(C)CCCC(C)C1CCC2C3CCC4Cc5[nH]c6ccccc6c5CC4(C)C3CCC12C'
p250
aS'CC(C)CCCC(C)C1CCC2C3CC=C4CC(C#N)CCC4(C)C3CCC12C'
p251
aS'CC(C)CCCC(C)C1CCC2C3CC=C4CC(Br)CCC4(C)C3CCC12C'
p252
aS'CCC1(O)CCC2C3CCC4=CCCCC4C3CCC21C'
p253
aS'CC(C)=CCCC(C)C1CCC2C3CC=C4CC(O)CCC4(C)C3CCC12C'
p254
aS'CC(C)CCCC(C)C1CCC2C3C(OC(=O)CCC(=O)O)C=C4CC(OC(=O)CCC(=O)O)CCC4(C)C3CCC12C'
p255
aS'CC(CCC=C(C)C)C1CCC2C1(CCC3=C2CCC4C3(CCC(C4(C)C(=O)O)O)C)C'
p256
aS'CC(C)CCCC(C)C1CCC2C3CC=C4C(O)C(O)CCC4(C)C3CCC12C'
p257
aS'COc1cc(C(=O)OC2C(O)C(O)COC2OC2C(O)COC(OC3CC4C5CC=C6CC(OC7OC(COC8OC(CO)C(O)C(O)C8O)C(O)C(O)C7O)CCC6(C)C5CCC4(C)C3(O)C(C)C(=O)CCC(C)C)C2OC(C)=O)cc(OC)c1OC'
p258
aS'CC(C)CCCC(C)C1CCC2C3CC=C4CC(SC#N)CCC4(C)C3CCC12C'
p259
aS'CC(C)CCCC(C)C1CCC2C3=C(CCC12C)C1(C)CCC(O)CC1CC3=O'
p260
aS'CC(=O)OC1CCC2(C)C3CCC4(C)C(CCC4C(C)CCCC(C)C)C3=CC(=O)C2C1'
p261
aS'CC(C)CCCC(C)C1CC=C2C3CCC4C(C)(C)C(O)CCC4(C)C3CCC21C'
p262
aS'CC(C)=CCCC(C)C1CCC2(C)C3CCC4C(C)C(O)CCC45CC35CCC12C'
p263
aS'C=C(CCC(C)C1CCC2C3CCC4=CC(=O)C=CC4(C)C3CCC12C(=O)O)C(C)C'
p264
aS'CC(=CCCC(C)C1CCC2C3C(O)CC4CC(O)CCC4(C)C3CCC12C)C(=O)SCCNC(=O)CCNC(=O)C(O)C(C)(C)COP(=O)([O-])OP(=O)([O-])OCC1OC(n2cnc3c2ncnc3N)C(O)C1OP(=O)([O-])[O-]'
p265
aS'C=COC(=CCC(C)C1CCC2C3CC=C4CC(O)CCC4(C)C3CCC12C)C(C)C'
p266
aS'CC(C)CCCC(C)C1CCC2C3CC=C4CC(OC(=O)CC(C)C)CCC4(C)C3CCC12C'
p267
aS'C=C(CCC(C)C1CCC2C3C(O)C=C4CC(O)CCC4(CO)C3CCC12C)C(C)C'
p268
aS'C=C(CCC(C)C1CCC2C3CC(O)C4(O)C=CC(O)C(=O)C4(C)C3C(O)CC12C)C(C)C'
p269
aS'CC(C)CCCC(C)C1CCC2C3CC=C4CC(OC(=O)Nc5ccc(S(=O)(=O)NC6CCCCC6)cc5)CCC4(C)C3CCC12C'
p270
aS'CC(C)CCCC(C)C1CCC2C1(CCC3C2C(CC4C3(CCC(=O)C4)C)O)C'
p271
aS'CC12CCC(=O)C=C1CCC3C2CCC4(C3CC(C4=O)O)C'
p272
aS'COc1cccc2c3c([nH]c21)CC1(C)C(CCC2C4CCC(C(C)CCCC(C)C)C4(C)CCC21)C3'
p273
aS'CC(C(O)CCC(C)(C)O)C1CCC2C3CCC4=CC(=O)CCC4(C)C3CCC12C'
p274
aS'CC(=O)OC1CCC2(C)C3=C(CC(OC(C)=O)C2C1)C1(C)CCC(C(C)CCCC(C)C)C1(C)CC3'
p275
aS'CC(C)CCCC(C)C1CCC2C3CC=C4CC(N(C(=O)[O-])c5ccc(S(=O)(=O)NC6CCCCC6)cc5)CCC4(C)C3CCC12C'
p276
aS'CC(C)CCCC(C)C1CCC2C3CCC4=CCCCC4(C)C3CCC12C'
p277
aS'CC(C(O)CCC(C)(C)O)C1CCC2(O)C3=CC(=O)C4CC(O)C(O)CC4(C)C3CCC12C'
p278
aS'CC(C)(O)C(O)CC(O)C(C)(O)C1CCC2(O)C3=CC(=O)C4CC(O)C(O)C(O)C4(C)C3CCC12C'
p279
aS'C#CNC(=O)OC1CCC2C3CCC4=CC(=O)CCC4(C)C3CCC12C'
p280
aS'[H]C1=C2C([H])([H])C([H])(O)C([H])([H])CC2(C)C2CCC3(C)C(C(C)CCCC(C)C)CCC3C2C1'
p281
aS'CC12CCCC1C1CC=C3CC(=O)CCC3(C)C1CC2'
p282
aS'CC(C)CCCC(C)C1CCC2C3=CC(O)C4(O)CC(O)CCC4(C)C3(O)CCC21C'
p283
aS'COc1ccc(C(=O)OC2C(O)C(O)COC2OC2C(O)COC(OC3CC4C5CC=C6CC(OC7OC(COC8OC(CO)C(O)C(O)C8O)C(O)C(O)C7O)CCC6(C)C5CCC4(C)C3(O)C(C)C(=O)CCC(C)C)C2OC(C)=O)cc1OC'
p284
aS'CC(C)CCCC(C)C1CCC2C3CCC4CC(=NNC(N)=O)C=CC4(C)C3CCC12C'
p285
aS'CC(C)CCCC(C)C1CCC2C3CC=C4CC(OC(=O)OC5CCC6(C)CC7CCC6(OO7)C5(C)C)CCC4(C)C3CCC12C'
p286
aS'CCCCCCCCC=CCCCCCCCC(=O)OC1CCC2(CI)C(=CCC3C4CCC(C(C)CCCC(C)C)C4(C)CCC32)C1'
p287
aS'CC12CCC3C(CCC4=CC(=O)CCC43C)C1CCC2C(=O)CO'
p288
aS'CC(C)CCCC(C)C1CCC2(C=O)C3=C(CCC12C)C1(C)CCC(O)C(C)(C)C1CC3'
p289
aS'CC(C)CCCC(C)C1CCC2C3CC=C4C(C)C(O)CCC4(C)C3CCC12C'
p290
aS'CC(C)CCCC(C)C1CCC2C3CC(I)=C4CC(O)CCC4(C)C3CCC12C'
p291
aS'CC(C)CCCC(C)C1CCC2C3CC=C4C(NCCCC(=O)O)C(O)CCC4(C)C3CCC12C'
p292
aS'CC(C)CCCC(C)C1CCC2C3CC=C4CC(OC(=O)c5ccc(N=Nc6ccccc6)cc5)CCC4(C)C3CCC12C'
p293
aS'CCOC(OCC)(OCC)C(C)CCCC(C)C1CCC2C3CC=C4CC(O)CCC4(C)C3CCC12C.O=CC(O)C(O)C(O)C(O)CO'
p294
aS'CC12CCC(CC1CCC3C2CCC4(C3CCC4C(=O)CO)C)O'
p295
aS'CC(C)CCCC(C)C1CCC2(C)C3=C(C(=O)CC12C)C1(C)CCC(O)C(C)(C)C1CC3=O'
p296
aS'CC(=O)OC1CC2C3CCC4CCCCC4(C)C3CCC2(C)C1C(C)C=CCC(C)C'
p297
aS'CC(C)CCCC(C)C1CCC2C3CC=C4CC(OC(=O)CCC(=O)OC5CCC6(C)C(=CCC7C8CCC(C(C)CCCC(C)C)C8(C)CCC76)C5)CCC4(C)C3CCC12C'
p298
aS'CC(C)CCCC(C)C1CCC2C3CCC4Cc5cc6ccccc6cc5CC4(C)C3CCC12C'
p299
aS'CC=C(CCC(C)C1CCC2C1(CCC3C2=CCC4C3(CCC(C4C)O)C)C)C(C)C'
p300
aS'CC=C(CCC(C)C1CCC2C1(C)CCC1C3(C)CCC(O)CC34C=CC21OO4)C(C)C'
p301
aS'CC(C)CCCC(C)C1CCC2C3CC=C4CC(OC(=O)Nc5ccc(S(=O)(=O)N(C)C)cc5)CCC4(C)C3CCC12C'
p302
aS'CC(C)CCCC(C)C1C(=O)CC2C3CC=C4CC(=O)CCC4(C)C3CCC12C'
p303
aS'C=C(C)CCCC(C)C1CCC2C3CCC4CC(O)CCC4(C)C3CCC12C'
p304
aS'CC(CCCC(C)(C)F)C1CCC2C3CC=C4CC(O)CCC4(C)C3CCC12C'
p305
aS'CC(=CCCC(C)C1CCC2C3C(O)C(O)C4CC(O)CCC4(C)C3CC(O)C12C)C(=O)O'
p306
aS'Cc1ccc(S(=O)(=O)OC2CCC3(C)C(=CCC4C5CCC(C(C)CCCC(C)C)C5(C)CCC43)C2)cc1'
p307
aS'CC(C)CCCC(C)C1CCC2C3CC=C4CC(OC(=O)CCCCCCCCCc5ccc6ccc7cccc8ccc5c6c78)CCC4(C)C3CCC12C'
p308
aS'CC12CCC3C(CCC4=CC(=O)CCC43C)C1CCC2(O)CCO'
p309
aS'CCSSCCCCCCCCCCCCCCC(=O)OCC1OC(OC2CCC3(C)C(=CCC4C5CCC(C(C)CCCC(C)C)C5(C)CCC43)C2)C(O)C(O)C1O'
p310
aS'CCCCC(CC)C(=O)OC1CCC2(C)C(=CCC3C4CCC(C(C)CCCC(C)C)C4(C)CCC32)C1'
p311
aS'CCCCCCCCCC(=O)OCC1OC(OC2CCC3(C)C(=CCC4C5CCC(C(C)CCCC(C)C)C5(C)CCC43)C2)C(O)C(O)C1O'
p312
aS'CC(C)C(C)CCC(C)C1CCC2C1(CCC3C2CC=C4C3(CCC(C4)O)C)C'
p313
aS'CCC(C)C=CC(C)C1CCC2C3CCC4CC(O)CCC4(C)C3CCC12C'
p314
aS'CC(C)CCCC(C)C1CC(O)C2(C)C3=CCC4CC(O)CCC4(C)C3CCC12C'
p315
aS'Cc1cc2ccccc2c2c1CC1(C)C(CCC3C4CCC(C(C)CCCC(C)C)C4(C)CCC31)C2'
p316
aS'CCS(=O)(=O)c1ccc(NC(=O)OC2CCC3(C)C(=CCC4C5CCC(C(C)CCCC(C)C)C5(C)CCC43)C2)cc1'
p317
aS'CC(C)CCCC(C)C1CCC2C3=CC(Cl)C4CC(OC(=O)c5ccccc5)CCC4(C)C3CCC21C'
p318
aS'CC12CCC(=O)CC1CCC3C2CCC4(C3CCC4O)C'
p319
aS'CC(CCCC(C)C(=O)O)C1CCC2C1(CCC3C2CC=C4C3(CCC(C4)O)C)C'
p320
aS'CC(C)CCCC(C)C1CCC2C3C(=O)C=C4CCCCC4(C)C3CCC12C'
p321
aS'C[Se]C1=C2CC(O)CCC2(C)C2CCC3(C)C(C(C)CCCC(C)C)CCC3C2C1'
p322
aS'CC(C)CCCC(C)C1CCC2C3CC=C4CC(SSC5CCC6(C)C(=CCC7C8CCC(C(C)CCCC(C)C)C8(C)CCC76)C5)CCC4(C)C3CCC12C'
p323
aS'C=C(CCC(C)C1CCC2=C3CCC4C(=C)C(O)CCC4(C)C3CCC21C)C(C)C'
p324
aS'CCCCCCC(=O)OC1CCC2(C)C(=CCC3C4CCC(C(C)CCCC(C)C)C4(C)CCC32)C1'
p325
aS'CC(C)C(=O)CCC(C)C1CCC2C3CC=C4CC(O)CCC4(C)C3CCC12C'
p326
aS'CC(C)CCCC(C)C1CCC2C3CC4OS(=O)(=O)OS(=O)(=O)OC5CCC(C)(C3CCC12C)C4C5'
p327
aS'CCCCCC=CCC=CCC=CCC=CCCCC(=O)OC1CCC2(C)C(=CCC3C4CCC(C(C)CCCC(C)C)C4(C)CCC32)C1'
p328
aS'CC(C)CCCC(C)C1CCC2C3CCC4Cc5[nH]c6ccc(OCc7ccccc7)cc6c5CC4(C)C3CCC12C'
p329
aS'CC12CCc3c4ccc(O)cc4ccc3C1CCC2=O'
p330
aS'CC(C)CCCC(C)C1C=CC2C3CCC4C(CO)CCC4(C)C3CCC21C'
p331
aS'[Na+].CC12CC(=O)C3C(CCC4CC(OS(=O)(=O)O)CCC43C)C1CC1OC(=O)C=C12'
p332
aS'CC(C)CCCC(C)C1CCC2C3CC=C4CC(OC(=O)CCC(=O)NCC[N+](C)(C)CCCS(=O)(=O)[O-])CCC4(C)C3CCC12C'
p333
aS'CC(C)CCCC(C)C1CCC2C3CC(=O)C4=CC(=O)CCC4(C)C3CCC12C'
p334
aS'COCOC1C=C2CCC3C4CCC(C(C)CCCC(C)C)C4(C)CCC3C2(C)CC1'
p335
aS'COC(=O)C(C)=CCCC(C)C1CCC2C3C(O)CC4CC(O)CCC4(C)C3CC(O)C12C'
p336
aS'CCCCCCCCCCCCCCCCCCCCCC(=O)OC1CCC2(C)C(=CCC3C4CCC(C(C)CCCC(C)C)C4(C)CCC32)C1'
p337
aS'CCCCCCCCCCCCCCCCC(=O)OC1CCC2(C)C(=CCC3C4CCC(C(C)CCCC(C)C)C4(C)CCC32)C1'
p338
aS'CC(C)CCCC(C)C1CCC2C3CCC4Cc5nccc(Cl)c5CC4(C)C3CCC12C'
p339
aS'CC(C)CCCC(C)C1CCC2C3C(O)C=C4CC(OC(=O)c5ccccc5)CCC4(C)C3CCC12C'
p340
aS'CC(=O)OC1CCC2(C)C(=CC(=NNS(=O)(=O)c3ccc(C)cc3)C3C4CCC(C(C)CCCC(C)C)C4(C)CCC32)C1'
p341
aS'CC(C)C(=C)CCC(C)C1CCC2C1(CCC3C2CC=C4C3(CCC(C4)O)C)C'
p342
aS'CC(C)CCCC(C)C1CCC2C3=CCC4C(C)(C=O)C(O)CCC4(C)C3CCC21C'
p343
aS'CC12CCC3C(CC(O)C4=CCCCC43C)C1CCC2=O'
p344
aS'CC12CCC3C(CC(O)C4=CCCCC43CO)C1CCC2=O'
p345
aS'CCCCCCCCCCCCCCCCOC1CCC2(C)C(=CCC3C4CCC(C(C)CCCC(C)C)C4(C)CCC32)C1'
p346
aS'CC(C(O)CCC(C)(O)CO)C1CCC2(O)C3=CC(=O)C4CC(O)C(O)CC4(C)C3CCC12C'
p347
aS'CC(C)CCCC(C)C1CCC2C3CCC4=CC(=O)C=CC4(C)C3CCC12C'
p348
aS'CC(C)CCCC(C)C1CCC2C3CC=C4CC(OC(=O)CCC(=O)O)CCC4(C)C3CCC12C'
p349
aS'CC12CCC(CC1CCC3C2C(CC4(C3CCC4(C(CO)O)O)C)O)O'
p350
aS'CCCCCC=CCC=CCCCCCCCCOC1CCC2(C)C(=CCC3C4CCC(C(C)CCCC(C)C)C4(C)CCC32)C1'
p351
aS'CC(=O)OCC12CCC3C(C1C(OC(C)=O)CC2C(C)CCCC(C)C)C(OC(C)=O)C=C1CC(O)C(OC(C)=O)CC13C'
p352
aS'CC(C)C(C)CCC(C)C1CCC2C3CC=C4CC(O)CCC4(C)C3CCC12C'
p353
aS'[H]C([H])([H])C(O)(CCCC(C)C1CCC2C3CC=C4CC(O)CCC4(C)C3CCC12C)C([H])([H])[H]'
p354
aS'COCOC1CCC2(C)C(=CCC3C4CCC(C(C)CCCC(C)C)C4(C)CCC32)C1'
p355
aS'CC(C)CCCC(C)C1CCC2C3CC=C4CC(OC(=O)CCCCCc5ccc6ccc7cccc8ccc5c6c78)CCC4(C)C3CCC12C'
p356
aS'CC(C)CCCC(C)C1CCC2C3CCC4=CC(=O)C(CCOC(=O)CCC(=O)O)CC4(C)C3CCC12C'
p357
aS'CCCCCOc1ccc(C(=O)OC2CCC3(C)C(=CCC4C5CCC(C(C)CCCC(C)C)C5(C)CCC43)C2)cc1'
p358
aS'CCCCCCCCCc1ccc(OC(=O)O)c(C2CCC3(C)C(=CCC4C5CCC(C(C)CCCC(C)C)C5(C)CCC43)C2)c1'
p359
aS'CC(C)CCCC(C)C1CCC2(O)C3=CC(=O)C4CC(O)CCC4(C)C3CCC12C'
p360
aS'CC(CCC1OC1(C)C)C1CCC2C3CC=C4CC(O)CCC4(C)C3CCC12C'
p361
aS'CC(C)CCCC(C)C1CCC2C3CC=C4CC(OC5CCC6(C)C(=CCC7C8CCC(C(C)CCCC(C)C)C8(C)CCC76)C5)CCC4(C)C3CCC12C'
p362
aS'CC(CCCC(C)C1CCC2C3=CCC4CC(=O)CCC4(C)C3CCC21C)C(=O)[O-]'
p363
aS'CCCCCCCCCc1ccc(OC(=O)OC2CCC3(C)C(=CCC4C5CCC(C(C)CCCC(C)C)C5(C)CCC43)C2)cc1'
p364
aS'COC(=O)C12CCC(O)CC1=CCC1C3CCC(C(C)C=CCC(C)C)C3(C)CCC12'
p365
aS'CC(C)CCCC(C)C1CCC2C3CC(O[Si](C)(C)C)C4=CC(O[Si](C)(C)C)CCC4(C)C3CCC12C'
p366
aS'CCCCCCCCC1CCC2C3CC=C4CC(OCC(=O)OCC5C=CC(n6cc(C)c(=O)[nH]c6=O)O5)CCC4(C)C3CCC12C'
p367
aS'CC(C)CCCC(C)C1CC(OC(=O)CCCCl)C2C3CC=C4CCCCC4(C)C3CCC12C'
p368
aS'COCC12CCC(OS(=O)(=O)c3ccc(C)cc3)CC1=CCC1C3CCC(C(C)CCCC(C)C)C3(C)CCC12'
p369
aS'CC(C)CCCC(C)C1CCC2C3CCC4CC(C)(O)C=CC4(C)C3CCC12C'
p370
aS'CC12CCC3C(C1CCC2O)CCC4=CC(=O)CCC34C'
p371
aS'CCOC(=O)OC1CCC2(C)C(=CCC3C4CCC(C(C)CCCC(C)C)C4(C)CCC32)C1'
p372
aS'CC(C)C(O)CCC(C)C1CC(=O)C2=C3CCC4CC(O)CCC4(C)C3CCC21C'
p373
aS'Cc1ccc(S(=O)(=O)OC2CCC3(C=O)C(=CCC4C5CCC(C(C)CCCC(C)C)C5(C)CCC43)C2)cc1'
p374
aS'CC(C)CCCC(C)C1CCC2C3=CCC4CC(O)CCC4(C)C3(C#N)CCC21C'
p375
aS'CC(C)CCCC(C)C1CCC2C3CC=C4CC(OP(=O)(O)OCC[N+](C)(C)C)CCC4(C)C3CCC12C'
p376
aS'CC(C)C(O)CC(O)C(C)(O)C1CCC2(O)C3=CC(=O)C4CC(O)C(O)CC4(C)C3C(O)CC12C'
p377
aS'CCCCCCCC=CCCCCCCCC(=O)OC1CCC2(C)C(=CCC3C4CCC(C(C)CCCC(C)C)C4(C)CCC32)C1'
p378
aS'CCOC1(C)CCC2(C)C(=CCC3C4CCC(C(C)CCCC(C)C)C4(C)CCC32)C1'
p379
aS'CC(CCCC(C)C)=C1CCC2C3CC(O)C4CC(O)CCC4(C)C3CCC12C'
p380
aS'CC(C)CCCC(C)C1CCC2C3=CCC4C(C)(CCC(O)C4(C)CO)C3CCC21C'
p381
aS'CCOCC(=O)OC1CCC2(C)C(=CCC3C4CCC(C(C)CCCC(C)C)C4(C)CCC32)C1'
p382
aS'CC(C)CCCC(C)C1CCC2C3CC=C4CC(OC(=O)CCCc5ccc(N(CCCl)CCCl)cc5)CCC4(C)C3CCC12C'
p383
aS'CCC(CCC(C)C1CCC2C3=CC(O)C4(O)CC(O)CCC4(C)C3CCC21C)C(C)C'
p384
aS'CC(=CC(C)C1CCC2C3CCC4C(C)C(=O)CCC4(C)C3CCC12C)C(C)C(C)C'
p385
aS'CC(=O)OC1CCC2(C)C(=CC(=O)C3C4CCC(C(C)CCCC(C)C)C4(C)CCC32)C1'
p386
aS'CC(C)CCCC(C)C1CCC2C3CCC4=CC(=O)C(=Cc5ccccc5)CC4(C)C3CCC12C'
p387
aS'CON=C1C=C2C(CCC3(C)C(C(C)C(CCC(C)(C)O[Si](C)(C)C)O[Si](C)(C)C)CCC23O)C2(C)CC(O[Si](C)(C)C)C(O[Si](C)(C)C)CC12'
p388
aS'CCCCC=CCCCCCCCC(=O)OC1CCC2(C)C(=CCC3C4CCC(C(C)CCCC(C)C)C4(C)CCC32)C1'
p389
aS'CC(C)CCCC(C)C1CCC2C3CC=C4CC(OC(=O)C5CCCC5)CCC4(C)C3CCC12C'
p390
aS'CC(C)CCCC(C)C1CCC2C3=CC(O)C45CC(O)CCC4(C)C3(CCC21C)OO5'
p391
aS'CC(C)CCCC(C)C1CCC2C3C(=O)C=C4CC(O)CCC4(C)C3CCC21C'
p392
aS'CC(C)CCCC(C)C1CCC2C3CC=C4CC(O[Si](C)(C)CCC(F)(F)C(F)(F)C(F)(F)F)CCC4(C)C3CCC12C'
p393
aS'CC(C)=CCCC(C)C1CCC2(C)C3CCC4C(C)C(=O)CCC45CC35CCC12C'
p394
aS'CCC(C)CCCCCCCCCCCCC(=O)OC1CCC2(C)C(=CCC3C4CCC(C(C)CCCC(C)C)C4(C)CCC32)C1'
p395
aS'CCCCCCC=CCCCCCCCCCC(=O)OC1CCC2(C)C(=CCC3C4CCC(C(C)CCCC(C)C)C4(C)CCC32)C1'
p396
aS'CCCCCCCCCCCC(=O)NC(CCC(=O)OCC(CCCCCCCC)CCCCCCCCCC)C(=O)OC1CCC2(C)C(=CCC3C4CCC(C(C)CCCC(C)C)C4(C)CCC32)C1'
p397
aS'Cc1ccc(S(=O)(=O)O)cc1.CC(C)CCCC(C)C1CCC2C3CC=C4CC(SC(=N)N)CCC4(C)C3CCC12C'
p398
aS'CC(C)CCCC(C)C1CCC2C3=CC(SCCO)C4(O)CC(O)CCC4(C)C3CCC21C'
p399
aS'[Gd].CC12CCC3C(CCC4=CC(=O)CCC43C)C1CCC2C(=O)CN1CCN(CC(=O)O)CCN(CC(=O)O)CCN(CC(=O)O)CC1'
p400
aS'CC(CCCC(C)C1CCC2C3C(O)CC4=CC(=O)CCC4(C)C3CCC12C)C(=O)O'
p401
aS'COc1ccc2c(c1)n(C(C)=O)c1c2CC2CCC3C4CCC(C(C)CCCC(C)C)C4(C)CCC3C2(C)C1'
p402
aS'CC(C)CCCC(C)C1CCC2C3CC(=NO)C4Cc5c(c6ccccc6n5Cc5ccccc5)CC4(C)C3CCC12C'
p403
aS'CC(C)CCCC(C)C1CCC2C3C(O)C=C4CC(O)CCC4(C)C3CCC12C'
p404
aS'CC(=O)OC1CCC2(C)C3CCC4(C)C(=C3CC(OC(C)=O)C2C1)CCC4C(C)CCCC(C)C'
p405
aS'CC(C)=CCCC(C)C1CCC2(C)C3CCC4C(C)(C)C(O)CCC4(C)C3=CCC12C'
p406
aS'CC(=CO)CCCC(C)C1CCC2C3C(O)CC4CC(O)CCC4(C)C3CC(O)C12C'
p407
aS'CCC=CCC=CCC=CCC=CCC=CCCCCCC(=O)OC1CCC2(C)C(=CCC3C4CCC(C(C)CCCC(C)C)C4(C)CCC32)C1'
p408
aS'CC(C)CCCC(C)C1CCC2C3CC=C4CC(N(C(=O)[O-])c5ccc(S(=O)(=O)N6CCCCC6)cc5)CCC4(C)C3CCC12C'
p409
aS'CC(C)CCCC(C)C1CCC2C3=C(CCC21C)C1(C)CCC(O)CC1CC3=O'
p410
aS'CC(CCC(O)C(C)(C)O)C1CCC2C3CC=C4CC(O)CCC4(C)C3CCC12C'
p411
aS'COC1C(O)C(O)COC1OCC1OC(OC(C=CC(C)C2CC(O)C3C2(C)CCC2C4(C)CCC(OC5OCC(O)C(O)C5OC)C(O)C4C(O)C(O)C32O)C(C)C)C(O)C1O'
p412
aS'CC(CCCC(C)(C)O)C1CCC2C3CC=C4CC(O)CCC4(C)C3CCC12C'
p413
aS'CC(C)CCC(O)C(C)C1C(OC2OC(CO)C(O)C(O)C2O)CC2C3CC=C4CC(OC5OC(CO)C(OC6OC(C)C(O)C(O)C6O)C(O)C5OC5OC(C)C(O)C(O)C5O)CCC4(C)C3CCC21C'
p414
aS'CC(C)CCCC(C)(C)C1CCC2C3CC=C4CC(O)CCC4(C)C3CCC21C'
p415
aS'O.O.CC(C)CCCC(C)C1CCC2C3CCC4CC(O)CCC4(C)C3CCC12C.CC(C)CCCC(C)C1CCC2C3CC=C4CC(O)CCC4(C)C3CCC12C'
p416
aS'CC(C)C(C)CCC(C)C1CCC2C3=C(CCC21C)C1(C)CCC(O)CC1CC3'
p417
aS'CC(C)C(C)C(C(C(C)C1CCC2C1(CCC3C2CC(=O)C4C3(CCC(C4)O)C)C)O)O'
p418
aS'CC(C)CCCC(C)C1CCC2C3CC=C4CC(OC(=O)CCC(=O)OC5CC(COP(=O)([O-])OC6CC(COP(=O)([O-])OC7CC(CO)OC7n7cnc8c7ncnc8N)OC6n6cnc7c6ncnc7N)OC5n5cnc6c5ncnc6N)CCC4(C)C3CCC12C'
p419
aS'CC12CCC3C(CCC4=CC(=O)CCC43C)C1CCC2=O'
p420
aS'CC(C)CCCC(C)C1CCC23OC24C=CC25CC(O)CCC2(C)C4(CCC13C)OO5'
p421
aS'CC(C)CCCC(C)C1CC(=O)C2=C3CCC4CC(O)CCC4(C)C3CCC21C'
p422
aS'CC12CCC3C(CC=C4CC(O)CCC43C)C1CCC2=O'
p423
aS'CC(C)CCCC(C)C1CCC2C1(C)CCC1C3(C)CCCCC3C(=NNC(=S)NC3CCCC3)CC21C'
p424
aS'CCCCC1CC2C3CCC(=O)C3(C)CCC2C2(C)C=CC(=O)C=C12'
p425
aS'CC12CCC(=O)C=C1CCC3C2C(CC4(C3CCC4=O)C)O'
p426
aS'CC(C)CCCC(C)C1CCC2C3CC(=O)C4=CCCCC4(C)C3CCC12C'
p427
aS'CCCCCCCCC1CCC2C3CC=C4CC(OCCOP(=O)(O)OCC5C=CC(n6cc(C)c(=O)[nH]c6=O)O5)CCC4(C)C3CCC12C'
p428
aS'CC(C)CCCC(C)C1CCC2(C)C3CCC4C(C)(C)C(O)CCC4(C)C3=CCC12C'
p429
aS'CC=C(CC(O)C(C)C1CCC2C3CC=C4CC(O)CCC4(C)C3CCC12C)C(C)C'
p430
aS'CC(CCC=C(C)C)C1CCC2(C1(CCC3=C2CCC4C3(CCC(C4(C)C)O)C)C)C'
p431
aS'CC(S)CCCC(C)C1CCC2C3CC=C4CC(O)CCC4(C)C3CCC12C'
p432
aS'CC12CCC(=O)C=C1CCC3C2C(CC4(C3CCC4(C(=O)CO)O)C)O'
p433
aS'CC(CCC=C(C)C)C1CCC2C1(CCC3=C2CCC4C3(CCC(C4)O)C)C'
p434
aS'CC(=O)OCC(C)CCCC(C)C1CCC2C3CC=C4CC(OC(C)=O)CCC4(C)C3CCC12C'
p435
aS'CCOc1ccc(C(=O)OC2CCC3(C)C(=CCC4C5CCC(C(C)CCCC(C)C)C5(C)CCC43)C2)cc1'
p436
aS'CC(=O)OC1C(OC2CC3C4CC=C5CC(OC6OC(CO)C(O)C(O)C6O)CCC5(C)C4CCC3(C)C2(O)C(C)C(=O)CCC(C)C)OCC(O)C1OC1OCC(O)C(O)C1O'
p437
aS'CC(C)CCCC(C)C1CCC2(C)C3=C(CCC12C)C1(C)CCC(=O)CC1CC3'
p438
aS'CC(C)CCCC(C)C1CCC2C3CC(O)C4=CC(=O)CCC4(C)C3CCC12C'
p439
aS'[H]C([H])([H])C([H])(CCCC(C)C1CCC2C3C(O)C=C4CC(O)CCC4(C)C3CCC12C)C([H])([H])[H]'
p440
aS'[Na+].CC(C)CCCC(C)C1CCC2C3CC=C4CC(OS(=O)(=O)[O-])CCC4(C)C3CCC12C'
p441
aS'CC(C)C(C)C(=O)CC(C)(O)C1CCC2C3CC(O)C4CC(O)CCC4(C)C3=CCC21C'
p442
aS'CC(C)CCC(O)C(C)C1CCC2C3CCC4=CC(=O)CCC4(C)C3CCC12C'
p443
aS'CCC=CCC=CCC=CCC=CCC=CCC=CCCC(=O)OC1CCC2(C)C(=CCC3C4CCC(C(C)CCCC(C)C)C4(C)CCC32)C1'
p444
aS'CC(CCCC(C)C1CCC2C3CCC4=CC(=O)CCC4(C)C3CCC12C)C1OCCO1'
p445
aS'CC(C)=CCCC(C)C1CC(=O)C2=C3CCC4CC(O)CCC4(C)C3CCC21C'
p446
aS'[Br-].[Br-].CC(=O)OC1C([N+]2(C)CCCCC2)CC2C3CCC4CC(OC(C)=O)C([N+]5(C)CCCCC5)CC4(C)C3CCC12C'
p447
aS'CCC(CC(C)C1CCC2C3CC=C4CC(O)CCC4(C)C3CCC12C)C1CC1C'
p448
aS'CC(C)CCCC(C)C1CCC2C3CC=C4C(C)(C)C(O)C(O)CC4(C)C3CCC12C'
p449
aS'[H]C([H])([H])C([H])(CCCC(C)(O)C1CCC2C3CC=C4CC(O)CCC4(C)C3CCC21C)C([H])([H])[H]'
p450
aS'CC12CCC3C(CCC4=CC(=O)CCC43C)C1CCC2O'
p451
aS'OCC(=O)[C@@H]3CC[C@@H]4[C@H]2CC[C@H]1CC(=O)CC[C@@]1(C)[C@@H]2[C@@H](O)C[C@@]34C=O'
p452
aS'CC(C)CCCC(C)C1CCC2C3CC=C4CC(I)CCC4(C)C3CCC12C'
p453
aS'[H]C([H])([H])C([H])(CCCC(C)C1CCC2C3C(=O)C=C4CC(O)CCC4(C)C3CCC12C)C([H])([H])[H]'
p454
aS'CC(C)CCCC(C)C1CCC2C3CC=C4CC(OP(=O)([O-])OCC[n+]5ccccc5)CCC4(C)C3CCC12C'
p455
aS'CC(C)C(C)CCC(C)C1CCC2C3=CCC4CC(O)CCC4(C)C3CCC21C'
p456
aS'CC(CN)CCCC(C)C1CCC2C3CC=C4CC(O)CCC4(C)C3CCC12C'
p457
aS'C=C(C(C)C)C(C)CC(C)C1CCC2C3CC=C4CC(O)CCC4(C)C3CCC12C'
p458
aS'Cc1ccc(S(=O)(=O)OC2CCC3(CO)C(=CCC4C5CCC(C(C)CCCC(C)C)C5(C)CCC43)C2)cc1'
p459
aS'CCC1(c2ccc(N)cc2)CCC(=O)NC1=O'
p460
aS'CC(C)CCCC(C)C1CCC2C3C(OCCCCCC(=O)ON4C(=O)CCC4=O)C=C4CC(O)CCC4(C)C3CCC12C'
p461
aS'CCCCCCCCCCCCCCCCCCCCCCCC(=O)OC1CCC2(C)C(=CCC3C4CCC(C(C)CCCC(C)C)C4(C)CCC32)C1'
p462
aS'Cc1ccc(S(=O)(=O)NN=C2C=C3C(=NNS(=O)(=O)c4ccc(C)cc4)CC4C5CCC(C(C)CCCC(C)C)C5(C)CCC4C3(C)CC2)cc1'
p463
aS'CC(C)C(=C)C=CC(C)C1CCC2C1(CCC3C2=CC=C4C3(CCC(C4)O)C)C'
p464
aS'CC(C)=CCCC(=O)C1CCC2C3CCC4CCCCC4(C)C3CCC12C'
p465
aS'Cc1cc2c(cn1)CC1(C)C(CCC3C4CCC(C(C)CCCC(C)C)C4(C)CCC31)C2'
p466
aS'CC(C)CCCC(C)C1CCC2C3CC=C4CC(OC(=O)CCC(=O)NCC(=O)NC(COC5OC(CO)C(O)C(O)C5O)(COC5OC(CO)C(O)C(O)C5O)COC5OC(CO)C(O)C(O)C5O)CCC4(C)C3CCC12C'
p467
aS'CC(CCC=C(C)C)C1CCC2C1(CCC3C2=CCC4C3(CCC(C4)O)C)C'
p468
aS'CC(C)CCCC(C)C1CCC2C3=CC(OC(=O)c4ccccc4)C4(O)CC(O)CCC4(C)C3CCC21C'
p469
aS'CCC(CCC(C)C1CCC2C3CC=C4CC(OC(=O)CCC(=O)O)CCC4(C)C3CCC12C)C(C)C'
p470
aS'CC(C)CCCC(C)C1CCC2C3CC=C4CC(OCCOCCOCCOC5OC(CO)C(OC6OC(CO)C(O)C(O)C6O)C(O)C5O)CCC4(C)C3CCC12C'
p471
aS'CCOP(=S)(OCC)OC1CCC2(C)C(=CCC3C4CCC(C(C)CCCC(C)C)C4(C)CCC32)C1'
p472
aS'CC12CCC3C(C1CC(C2O)O)CCC4=C3C=CC(=C4)O'
p473
aS'CC(C)CCCC(C)C1CCC2C3C(N)C=C4CC(O)CCC4(C)C3CCC12C'
p474
aS'CC(C)CCCC(C)C1CCC2C3CC=C4CC(OO)CCC4(C)C3CCC12C'
p475
aS'CC(CCCC(C)(C)O)C1CCC2C1(CCC3C2CC=C4C3(CCC(C4)O)C)C'
p476
aS'CC12CCC(CC1CCC3C2C(CC4(C3CCC4(C(=O)CO)O)C)O)O'
p477
aS'CC(C)CCCC(C)C1CCC2C3C(=O)C=C4C(=O)CCCC4(C)C3CCC12C'
p478
aS'C=CC(O)(C(C)C)C(C)C1CCC2C3CC=C4CC(O)CCC4(C)C3CCC12C'
p479
aS'CC(C)CCCC(C)C1CCC2C3CC=C4CC(OCCCC(=O)O)CCC4(C)C3CCC21C'
p480
aS'CC(C)CCCC(C)C1CCC2C3CCC4CC(O)CCC4(C)C3=CCC12C'
p481
aS'COC(=O)C(C)CCCC(C)C1CCC2C3CC=C4CC(O[Si](C)(C)C)CCC4(C)C3CCC12C'
p482
aS'CC(=O)OC1CCC2(C)C3CCC4(C)C(=C3CCC2C1)C(=O)CC4C(C)CCCC(C)C'
p483
aS'CC(C)CCCC(C)C1CCC2C3=CCC4CC(O)CCC4(C)C3CCC21C'
p484
aS'CC(C)CCCC(C)C1CCC2C3CC=C4CC(OP(=O)(O)OCCC=C(c5cc(Cl)c(O)c(C(=O)O)c5)c5cc(Cl)c(O)c(C(=O)O)c5)CCC4(C)C3CCC12C'
p485
aS'CC(C)CCCC(C)C1CCC2C3CC=C4CC(N)CCC4(C)C3CCC12C'
p486
aS'CSC1CCC2(C)C(=CCC3C4CCC(C(C)CCCC(C)C)C4(C)CCC32)C1'
p487
aS'CC(C)CCCC(C)C1CCC2C3CC=C4CC(OC5OC(CO)C(OC6OC(CO)C(O)C(O)C6O)C(O)C5O)CCC4(C)C3CCC12C'
p488
aS'CC(CCC(C)C1C(O)CC2C3CC(=O)C4=CC(=O)CCC4(C)C3CC(O)C12C)C1CC1C'
p489
aS'C=C(C(C)CC)C(CC)CC(C)C1CCC2C3CC=C4CC(O)CCC4(C)C3CCC12C'
p490
aS'CC12CCC3C(CC=C4CCCCC43C)C1CCC2=O'
p491
aS'CC(C)CCCC(COS(=O)(=O)O)C1CCC2C3CC=C4C(O)C(OS(=O)(=O)O)CCC4(C)C3CCC21C'
p492
aS'Cc1ccc2[nH]c3c(c2c1)CC1(C)C(C3)C(=O)CC2C3CCC(C(C)CCCC(C)C)C3(C)CCC21'
p493
aS'CC=C(CCC(C)C1CCC2C3CCC4CC(O)CCC4(C)C3CCC12C)C(C)C'
p494
aS'O.O.CC(C)CCCC(C)C1CCC2C3CC=C4CC(O)CCC4(C)C3CCC12C.CC(C)CCCC(C)C1CCC2C3CCC4CC(O)CCC4(C)C3CCC12C'
p495
aS'CC(C)C(C)C(C(C(C)C1CCC2C1(CCC3C2CC(C4C3(CC(C(C4)O)O)C)O)C)O)O'
p496
aS'[Na+].[Na+].CC(C)CCCC(COS(=O)(=O)[O-])C1CCC2C3CC=C4CC(O)C(OS(=O)(=O)[O-])CC4(C)C3CCC12C'
p497
aS'CCC(C=CC(C)C1CCC2C3CCC4CC(O)CCC4(C)C3CCC12C)C(C)C'
p498
aS'CC(C)CC(=O)CC(C)C1CCC2C3CCC4CC(OC5OC(C(=O)O)C(O)C(O)C5O)CCC4(C)C3CCC12C'
p499
aS'CC(CCC(C)C1C(O)CC2C3CC(=O)C4=CC(=O)CCC4(C)C3CC(O)C21C)C1CC1C'
p500
aS'CC12CCC(CC1CCC3C2C(=O)CC4(C3CCC4(C(=O)CO)O)C)O'
p501
aS'CCOC1CCC2(CI)C(=CCC3C4CCC(C(C)CCCC(C)C)C4(C)CCC32)C1'
p502
aS'CC(=O)OCC1CC2C(CCC3=CC(=O)C=CC32C)C2CCC(C(C)CCCC(C)C(=O)O)C21C'
p503
aS'CCOc1ccc2c(n1)CC1CCC3C4CCC(C(C)CCCC(C)C)C4(C)CCC3C1(C)C2'
p504
aS'CC(C)(O)C(O)CC(O)C(C)(O)C1CCC2(O)C3=CC(=O)C4CC(O)C(O)CC4(C)C3C(O)CC12C'
p505
aS'CC(CO)CCC(=O)C(C)C1C(=O)CC2C3CC=C4CC(O)CCC4(C)C3CCC12C'
p506
aS'CC(C)CCCC(C)C1CCC2(C1(CCC3=C2CCC4C3(CCC(C4(C)C)O)C)C)C'
p507
aS'CC(C)CCCC(C)C1CCC2C3CC=C4CC(OC(=O)NCCN(C)C)CCC4(C)C3CCC12C'
p508
aS'CC(=O)OC1CCC2(C)C(CCC3C4=CCC(C(C)CCCC(C)C)C4(C)CCC32)C1'
p509
aS'CCCCCCCCC=CCCCCCCCCOC(=O)OC1CCC2(C)C(=CCC3C4CCC(C(C)CCCC(C)C)C4(C)CCC32)C1'
p510
aS'CC(C)CCCC(C)C1CCC2C3CCC4Cc5[nH]ncc5CC4(C)C3CCC12C'
p511
aS'CC(C)CCCC(C)C1CCC2C3CCC4C=CC(C)CC4(C)C3CCC12C'
p512
aS'[H]C([H])([H])C([H])(CCCC(C)C1CCC2C3C(=O)C=C4CC(OC(C)=O)CCC4(C)C3CCC12C)C([H])([H])[H]'
p513
aS'CC12CCC(=O)C=C1CCC3C2C(CC4(C3CCC4C(=O)CO)CO)O'
p514
aS'CC12CCCC1C1CCC3=CC(=O)CCC3(C)C1CC2'
p515
aS'CC(C)C(O)CCC(C)C1CCC2C3CC(O)=C4CC(O)CCC4(C)C3CCC21C'
p516
aS'CC(C)C(CCC(C)C1CCC2C1(CCC3C2CC=C4C3(CCC(C4)O)C)C)O'
p517
aS'CC(C1CCC2C1(CCC3C2CCC4C3(CCC(C4)O)C)C)O'
p518
aS'CC(CCCC(C)C(=O)[O-])C1CCC2C3=CCC4CC(=O)CCC4(C)C3CCC21C'
p519
aS'CC(C)C(C)CC(C(C)C1CCC2C1(CCC3C2CC=C4C3(CCC(C4)O)C)C)O'
p520
aS'CCCCCCCCCCCCCCCCCC(=O)OC1CCC2(C)C(=CCC3C4CCC(C(C)CCCC(C)C)C4(C)CCC32)C1'
p521
aS'CC(C)CCCC(C)C1CCC2C3CC=C4CC(OC(=O)CC(C)C5CCCCC5)CCC4(C)C3CCC12C'
p522
aS'CC(CC(C)C(C)C(C)C)=C1CCC2C3CCC4C(C)C(O)CCC4(C)C3CCC12C'
p523
aS'CC(C)C(CCC(C)C1CCC2C3CC=C4CC(O)CCC4(C)C3CCC12C)C(C)C'
p524
aS'CC(C)C(=O)CC(C)(O)C1CCC2C3CC(O)C4CC(O)CCC4(C)C3=CCC21C'
p525
aS'CC12CCC3C(C1CCC2O)CC(C4=C3C=CC(=C4)O)O'
p526
aS'[H]C([H])([H])C([H])(CCCC(C)C1CCC2C3CC=C4CC(O)CCC4(C)C3CCC12C)C([H])([H])O'
p527
aS'CC(CO)CCCC(C)C1CC(=O)C2=C3CCC4CC(O)CCC4(C)C3CCC21C'
p528
aS'CC(C)CCCC(C)C1CCC2C3CC=C4CC(OC(=O)COc5cc6oc(=O)c7c(c6cc5Cl)CCCC7)CCC4(C)C3CCC12C'
p529
aS'CCC(CCC(C)C1CC=C2C3=CCC4CC(O)CCC4(C)C3CCC21C)C(C)C'
p530
aS'CC(C)CCCC(C)C1CCC2C3CC=C4CC(OC(=O)c5ccc(Cl)cc5Cl)CCC4(C)C3CCC12C'
p531
aS'Cl.CCN(CC)CC1=C2CC(O)CCC2(C)C2CCC3(C)C(C(C)CCCC(C)C)CCC3C2C1'
p532
aS'C#CCOC(=O)OC1CCC2(C)C(=CCC3C4CCC(C(C)CCCC(C)C)C4(C)CCC32)C1'
p533
aS'C=C(C)COC(=O)OC1CCC2(C)C(=CCC3C4CCC(C(C)CCCC(C)C)C4(C)CCC32)C1'
p534
aS'CC(C)C(C)C(C(C(C)C1CCC2C1(CCC3C2CCC4C3(CCC(=O)C4)C)C)O)O'
p535
aS'CC1(O)CCC2C3CC=C4CC(O)CCC4(C)C3CCC21C'
p536
aS'CC(C)CCCC(C)C1CCC2=C3C(=O)CC4CC(O)CCC4(C)C3CCC21C'
p537
aS'CC(C)CCCC(COS(=O)(=O)O)C1CCC2C3CC=C4CC(O)C(OS(=O)(=O)O)CC4(C)C3CCC12C'
p538
aS'Cc1cnc2c(c1)CC1CCC3C4CCC(C(C)CCCC(C)C)C4(C)CCC3C1(C)C2'
p539
aS'CC(CO)C(O)CCC(C)C1CCC2C3CC=C4CC(O)CCC4(C)C3CCC12C'
p540
aS'CC(C)CCCC(C)C1CCC2C3CC=C4CC(OC(=O)CCCCCCCCC(=O)OC5CCC6(C)C(=CCC7C8CCC(C(C)CCCC(C)C)C8(C)CCC76)C5)CCC4(C)C3CCC12C'
p541
aS'CC(CCCC(C)C(=O)O)C1CCC2C3CCC4=CC(=O)C=CC4(C)C3CC(C)C12C'
p542
aS'CC(=O)C1CCC2C1(CCC3C2CCC4=CC(=O)CCC34C)C'
p543
aS'CCCCCC=CCC=CCC=CCC=CCCCCCC(=O)OC1CCC2(C)C(=CCC3C4CCC(C(C)CCCC(C)C)C4(C)CCC32)C1'
p544
aS'CCCCCCCCC=CCCCCCCCCCC(=O)OCC1OC(OC2CCC3(C)C(=CCC4C5CCC(C(C)CCCC(C)C)C5(C)CCC43)C2)C(O)C(O)C1O'
p545
aS'CC1=CC(=O)CC2CCC3C4CCC(O)C4(C)CCC3C12C'
p546
aS'CC(CCCC(C)(C)O[Si](C)(C)C)C1CCC2C3CC=C4CC(O[Si](C)(C)C)CCC4(C)C3CCC12C'
p547
aS'CC(C(O)CCC(C)(C)C)C1CCC2C3CC=C4CC(O)CCC4(C)C3CCC12C'
p548
aS'[Na+].[Na+].[Na+].CC(C=CC(C)C1CCC2C3CC(OC4OC(C)C(OS(=O)(=O)[O-])C(O)C4O)C4CC(OS(=O)(=O)[O-])CCC4(C)C3=CCC12C)C(C)C(=O)NCCOS(=O)(=O)[O-]'
p549
aS'CCC(CCC(C)C1CCC2=C3CCC4CC(O)CCC4(C)C3CCC21C)C(C)C'
p550
aS'CC(C)CCCC(C)C1CCC2C3CC=C4CC(OC(=O)CCC(C)C)CCC4(C)C3CCC12C'
p551
aS'CCCCCCCCC=CCCCCCCCC(=O)OC1CCC2(C)C(=CCC3C4CCC(C(C)CCCC(C)(C)O)C4(C)CCC32)C1'
p552
aS'CC(C)C(C)C1CC1C(C)C1CCC2C3CC=C4CC(O)CCC4(C)C3CCC21C'
p553
aS'CC(=O)OC1CCC2(C)C(C1)C(=O)C=C1C3CCC(C(C)CCCC(C)C)C3(C)CCC12O'
p554
aS'CC(C)CCCC(C)C1CCC2C1(C)CCC1C2(C)CC(=NNC(=S)NC2CCCC2)C2CCCCC21C'
p555
aS'COc1ccccc1-c1coc2cc(OCC(=O)OC3CCC4(C)C(=CCC5C6CCC(C(C)CCCC(C)C)C6(C)CCC54)C3)ccc2c1=O'
p556
aS'COC(O)C(O)C(OC(C)C(=O)NC(C)C(=O)NC(CCC(=O)NC(C)C(=O)OC1CCC2(C)C(=CCC3C4CCC(C(C)CCCC(C)C)C4(C)CCC32)C1)C(N)=O)C(C=O)NC(C)=O'
p557
aS'CC(C)CCCC(C)C1CCC2C3CC=C4CC(OC(=O)NCCCOC5CC(O)C(COP(=O)(O)O)O5)CCC4(C)C3CCC12C'
p558
aS'[Na+].CC(C)CC(=O)CC(C)C1CCC2C3CC(OC4OC(C)C(O)C(OC5OCC(OC6OC(CO)C(O)C(O)C6OC6OC(C)C(OC7OC(CO)C(O)C(O)C7O)C(O)C6O)C(O)C5OC5OC(C)C(O)C(O)C5O)C4O)C4CC(OS(=O)(=O)[O-])CCC4(C)C3=CCC12C'
p559
aS'CC(C(O)CCC(C)(C)O)C1CCC2(O)C3=CC(=O)C4CC(O)C(=O)CC4(C)C3CCC12C'
p560
aS'CC(=O)OC1CC2=CC=C3C4CCC(C(C)CCCC(C)C)C4(C)CCC3C2(C)C(OC(C)=O)C1'
p561
aS'CCCCCCCCC=CCCCCCCCCCCCCCC(=O)OC1CCC2(C)C(=CCC3C4CCC(C(C)CCCC(C)C)C4(C)CCC32)C1'
p562
aS'CC1C2CCC3=C(C2(CCC1O)C)CCC4(C3CCC4C(C)CCC(=C)C(C)C)C'
p563
aS'CC(C)CCCC(C)C1CCC2C3=C(CCC12C)C1(C)CCC(O)C(C)C1CC3'
p564
aS'[Na+].[Na+].CC(C)CCCC(C)C1CCC2C3CC(OS(=O)(=O)[O-])C4CC(OS(=O)(=O)[O-])CCC4(C)C3CCC12C'
p565
aS'Cc1ccc2[nH]c3c(c2c1)CC1(C)C(CCC2C4CCC(C(C)CCCC(C)C)C4(C)CCC21)C3'
p566
aS'CC(C)CCCC(C)C1CCC2C3CC=C4CC(=NNC(=O)c5ccccc5)CCC4(C)C3CCC12C'
p567
aS'CC(C)CCCC(C)C1CCC2C3CC=C4CCCC(O)C4(C)C3CCC12C'
p568
aS'CCCCCCCCCCCCCCCCCC(=O)OCC(=O)C1CCC2C3CCC4=CC(=O)CCC4(C)C3C(O)CC12C'
p569
aS'CC(CCCC(C)(C)O)C1CCC2C1(CCC3C2C(C=C4C3(CCC(C4)O)C)O)C'
p570
aS'COC1CC2C3CCC(C(C)C(C=CC(C)C)OC(=O)C(C)(C)C)C3(C)CCC2C2(C)CCC3CC312'
p571
aS'CC(C)CCCC(C)C1CCC2C3CC=C4CC(SC(=N)N)CCC4(C)C3CCC12C'
p572
aS'CC[Si](CC)(CC)OC1CCC2(C)C(=CCC3C4CCC(C(C)CCCC(C)C)C4(C)CCC32)C1'
p573
aS'CC(C)CCCC(C)C1CCC2C3=C(CCC12C)C1(C)CCC(O)CC1CC3'
p574
aS'CC(C)CCCC(C)C1CCC2C3CC=C4CC(OC(=O)CC(C)I)CCC4(C)C3CCC12C'
p575
aS'CC12CCC3C(C1CCC2C(=O)CO)CCC4=CC(=O)CCC34C'
p576
aS'CC(C)CCCC(C)C1C(=O)C=C2C3CCC4CCCCC4(C)C3CCC21C'
p577
aS'CC(C)CCCC(C)C1CCC2C3CCC4=CC(OC(=O)c5ccccc5)CCC4(C)C3CCC12C'
p578
aS'CC(C)CCCC(C)C1CCC2C3CC=C4CC(Cl)CCC4(C)C3CCC12C'
p579
aS'CC12CCC3C(CCC4=CCCCC43CO)C1CCC2=O'
p580
aS'COC1CCC2(C)C3CCC4(C)C(CCC4C(C)CCCC(C)C)C3=CC(O)C2C1'
p581
aS'COc1cccc2c3c(n(C=O)c21)CC1(C)C(CCC2C4CCC(C(C)CCCC(C)C)C4(C)CCC21)C3'
p582
aS'CC12CCC(=O)CC1CCC3C2CCC4(C3CCC4C(=O)CO)C'
p583
aS'C=C(CCC(C)C1CCC2C3CC(O)C4(O)CC=CC(=O)C4(C)C3C(O)CC12C)C(C)C'
p584
aS'CC(=CC(C)C1CCC2C3CCC4C(C)C(O)CCC4(C)C3CCC12C)C(C)C(C)C'
p585
aS'CC(C)CCCC(C)C1CCC2C3CC=C4CC(OC(=O)COc5cc6oc(=O)cc(-c7ccccc7)c6cc5Cl)CCC4(C)C3CCC12C'
p586
aS'CC(C)CCCC(C)C1CCC2C3CCC4CC=CCC4(C)C3CCC12C'
p587
aS'CC(C)C(O)(C(=O)OCC1=CCN2CCC(O)C12)C(C)O'
p588
aS'CC(C)CCC(O)C(C)C1CCC2(O)C3=CC(=O)C4CC(O)C(O)CC4(C)C3CCC12C'
p589
aS'CC(C)CCCC(C)C1CCC2C3CC([N+](=O)[O-])=C4CC(O)CCC4(C)C3CCC12C'
p590
aS'C=C(C(C)CC)C(C)CC(C)C1CCC2C3CC=C4CC(O)CCC4(C)C3CCC12C'
p591
aS'C[Se]CC12CCC(O)CC1=CCC1C3CCC(C(C)CCCC(C)C)C3(C)CCC12'
p592
aS'CC(=O)C1CCC2C1(CCC3C2CCC4C3(CCC(C4)O)C)C'
p593
aS'CC(C)CC=CC(C)C1CCC2C3CCC4CCCCC4(C)C3CCC12C'
p594
aS'CC(C)CCCC(C)C1=CCC2C3CCC4CC(O)CCC4(C)C3CCC12C'
p595
aS'COCC12CCCC(O)C1=CCC1C3CCC(=O)C3(C)CCC12'
p596
aS'CC(=O)C1(O)CCC2C3CCC4=CC(=O)CCC4(C)C3CCC21C'
p597
aS'CC(C1CCC2C1(CCC3C2CCC4=CC(=O)CCC34C)C)O'
p598
aS'CC(=O)OC1C2=CCC3C4CCC(C(C)CCCC(C)C)C4(C)CCC3C2(C)CCC1O'
p599
aS'CC(C)CCCC(C)C1CCC2C3CCC4Cc5nc(Cl)ccc5CC4(C)C3CCC12C'
p600
aS'O.CC12CCC3c4ccc(O)cc4CCC3C1CCC2O.CC12CCC3c4ccc(O)cc4CCC3C1CCC2O'
p601
aS'C=C(CCC(C)C1CCC2C3=C(CCC21C)C1(C)CCC(O)C(C)C1CC3)C(C)C'
p602
aS'CC(C)CCCC(C)C1CCC2C3CC=C4CC(OS(=O)(=O)O)CCC4(C)C3CCC12C.CC1C(O)C(C)C=CC=CC=CC=CC=CC=CC=CC(OC2OC(C)C(O)C(N)C2O)CC2OC(O)(CC(O)CC(O)C(O)CCC(O)CC(O)CC(=O)OC1C)CC(O)C2C(=O)O'
p603
aS'CCCCCCCCC=CCCCCCCCC(=O)OC1CCC2(C)C(=CCC3C4CCC(C(C)CCCC(C)C)C4(C)CCC32)C1'
p604
aS'CC(C)CCCC(C)(O)C1C(=O)CC2C3CCC4CC(=O)C=CC4(C)C3CCC21C'
p605
aS'CC(C)CCCC(C)C1CCC2C3CCC4c5c6ccccc6n(C)c5CCC4(C)C3CCC12C'
p606
aS'CC(CCCC(C)(C)O)C1CC(=O)C2=C3CCC4CC(O)CCC4(C)C3CCC21C'
p607
aS'CC12CCC3C(CCC4=CCCCC43C)C1CCC2=O'
p608
aS'CC(C=CCC(C)C1CCC2C3C(O)CC4CC(O)CCC4(C)C3CC(O)C12C)C(=O)O'
p609
aS'CCCCCCCCC=CCCCCCC(=O)OCC1OC(OC2CCC3(C)C(=CCC4C5CCC(C(C)CCCC(C)C)C5(C)CCC43)C2)C(O)C(O)C1O'
p610
aS'CCCC=CCC=CCCCCCCCC(=O)OC1CCC2(C)C(=CCC3C4CCC(C(C)CCCC(C)C)C4(C)CCC32)C1'
p611
aS'C=CC(=O)OC(=O)CCCCCCCCCCC1CC2C(CC=C3CC(O)CCC32C)C2C(O)CC(C(C)CCCC(C)C)C21C'
p612
aS'CC(=O)OC1CCC2(C)C(CCC3C4CCC(C(C)(O)C#CCC(C)(C)OC5CCCCO5)C4(C)CC(=O)C32)C1'
p613
aS'CC(C)C(C)C1OC1C(C)(O)C1CCC2C3CC(O)C4CC(O)CCC4(C)C3=CCC21C'
p614
aS'C=CC(=O)OC(=O)CCCC1C(O)CCC2(C)C3CCC4(C)C(=CCC4C(C)CCCC(C)C)C3CC(O)C12'
p615
aS'CCCCOc1ccc(C(=O)OC2CCC3(C)C(=CCC4C5CCC(C(C)CCCC(C)C)C5(C)CCC43)C2)cc1'
p616
aS'CC(C)CC=CC(C)C1C(O)CC2C3CCC4CCCCC4(C)C3CCC21C'
p617
aS'CC(C)CCCC(C)C1CCC2C3CC=C4CC(NC(=O)c5ccccc5)CCC4(C)C3CCC12C'
p618
aS'CC(=O)OC1CC2=C(CCC3(C)C(C(C)CCCC(C)C)CCC23C)C2(C)CCC(=O)CC12'
p619
aS'CC(=O)C1CCC2C3CCC4=CC(=O)CCC4=C3C=CC12C'
p620
aS'CC(C)CCCC(C)C1CCC2C3C(=NN)C=C4CC(O)CCC4(C)C3CCC12C'
p621
aS'CC(C)CCCC(C)C1CCC2C3CC=C4C(C)(C)C(O)CCC4(C)C3CCC12C'
p622
aS'CC(C)CCCC(C)C1CCC2C3CC([N+](=O)[O-])C4Cc5c(c6ccccc6n5Cc5ccccc5)CC4(C)C3CCC12C'
p623
aS'CC12CCC3C(C1CC(C2=O)O)CCC4=C3C=CC(=C4)O'
p624
aS'CC(CCCC(C)(O)CO)C1CCC2C3CC=C4CC(O)CCC4(C)C3CCC21C'
p625
aS'CC(CO)CCCC(C)C1C(O)CC2C3CC=C4CC(O)CCC4(C)C3CCC21C'
p626
aS'[K+].CC12CC(O)C3(F)C(CCC4=CC(=O)CCC43C)C1CCC2(O)CCC(=O)[O-]'
p627
aS'CCC(CCC(C)C1C(O)C=C2C3CCC4CC(O)CCC4(C)C3CCC21C)C(C)C'
p628
aS'CCC(CCC(C)C1CCC2C3=CCC4CC(O)CCC4(C)C3CCC21C)C(C)C'
p629
aS'CCC(CCC(C)C1C(OC2OC(CO)C(OC)C(O)C2NC(C)=O)CC2=C3C(O)C(O)C4CC(O)CCC4(C)C3CCC21C)C(C)C'
p630
aS'CC(=O)OC1C([N+]2(C)CCCCC2)CC2C3CCC4CC(OC(C)=O)C([N+]5(C)CCCCC5)CC4(C)C3CCC21C'
p631
aS'CC(C)CCCC(C)C1CCC2C3C(O)CC4=CCCCC4(C)C3CCC12C'
p632
aS'CCCCCCCCCCCCCCCCCC(=O)OCC1OC(OC2CCC3(C)C(=CCC4C5CCC(C(C)CCCC(C)C)C5(C)CCC43)C2)C(O)C(O)C1O'
p633
aS'CC(C)CCCC(C)C1CCC2C3CC=C4CC(OS(=O)(=O)O)CCC4(C)C3CCC12C'
p634
aS'CC(=O)C1CCC2C3CCC4CC(=O)CCC4(C)C3CCC12C'
p635
aS'CC(C)CCCC(C)C1CCC2C3CC=C4CC(OC(=O)CN5CC5)CCC4(C)C3CCC12C'
p636
aS'[Na+].[Na+].CCCC12OC(CC3(C(C)C)CC3C)C(C)(O1)C1C(CC3C4CCC5CC(OS(=O)(=O)[O-])C(OS(=O)(=O)[O-])CC5(C)C4CCC31C)O2'
p637
aS'CC(CCCC(C)C1CCC2C3CCC4=CC(=O)C=CC4(C)C3CC(C)C12C)C(=O)O'
p638
aS'CC(=O)OCCOC1CCC2(C)C(=CCC3C4CCC(C(C)CCCC(C)C)C4(C)CCC32)C1'
p639
aS'CCCCCCCCC=CCCCCCCCC(=O)OC1CCC2(C)C(CCC3=C4C(=O)CC(C(C)CCCC(C)C)C4(C)CCC32)C1'
p640
aS'[H]C([H])([H])C([H])([H])CCCCCCC=CCCCCCCCC(=O)OC1CCC2(C)C(=CCC3C4CCC(C(C)CCCC(C)C)C4(C)CCC32)C1'
p641
aS'CC(C)CCCC(C)C1CCC2C3=CCC4CC(=O)CCC4(C)C3CCC21C'
p642
aS'C=CCC1(O)CCC2C3CCC4=CCCCC4C3CCC21C'
p643
aS'[H]C([H])([H])C([H])(C)CCCC(C)C1CCC2C3CC=C4C(O)C(O)CCC4(C)C3CCC12C'
p644
aS'CCCCCCCCNC(=O)OC1CCC2(C)C(=CCC3C4CCC(C(C)CCCC(C)C)C4(C)CCC32)C1'
p645
aS'CC(C)CCCC(C)C1CCC2C3=CCC4C(C)(C)C(=O)CCC4(C)C3CCC21C'
p646
aS'COc1cccc(C(=O)OC2CCC3(C)C(=CCC4C5CCC(C(C)CCCC(C)C)C5(C)CCC43)C2)c1OC'
p647
aS'CC(C)CCCC(C)C1CCC2C3CC=C4CC(SC(=O)Oc5ccccc5)CCC4(C)C3CCC12C'
p648
aS'CC(C)CCCC(C)C1CCC2C3=CCC4C(C)(CCC(O)C4(C)C(=O)O)C3CCC21C'
p649
aS'COCCOC1CCC2(C)C(=CCC3C4CCC(C(C)CCCC(C)C)C4(C)CCC32)C1'
p650
aS'CC(C)C(O)CCC(C)C1CCC2C3C(O)C=C4CC(O)CCC4(C)C3CCC12C'
p651
aS'CC(C)CCCC(C)C1CCC2C3CCC4CC=CC(O)C4(C)C3CCC12C'
p652
aS'CC=CCOC(=O)OC1CCC2(C)C(=CCC3C4CCC(C(C)CCCC(C)C)C4(C)CCC32)C1'
p653
aS'CC(=O)OC1CCC2(CCl)C(=CCC3C4CCC(C(C)CCCC(C)C)C4(C)CCC32)C1'
p654
aS'N.N.[Pt+4].CC(C)CCCC(C)C1CCC2C3CC=C4CC(OC(=O)CC(CC(=O)[O-])C(=O)[O-])CCC4(C)C3CCC12C'
p655
aS'CCCCCCCCCCCCCCCC(=O)OCC1OC(OC2CCC3(C)C(=CCC4C5CCC(C(C)CCCC(C)C)C5(C)CCC43)C2)C(O)C(O)C1O'
p656
aS'CC(C)CCCC(C)C1CCC2C3CCC4=CC(O[Si](C)(C)C)CCC4(C)C3CCC12C'
p657
aS'CC(C)C(C)(CCC(C)C1CCC2C3CC=C4CC(O)CCC4(C)C3CCC12C)C(C)O'
p658
aS'CC(C)CCCC(C)C1CCC2C3CCC4CCCCC4(C)C3=CCC12C'
p659
aS'CC(C(CCC(C)(C)O[Si](C)(C)C)O[Si](C)(C)C)C1CCC2(O[Si](C)(C)C)C3=CC(=O)C4CC(O[Si](C)(C)C)C(O[Si](C)(C)C)CC4(C)C3CCC12C'
p660
aS'CC(C)C(C)C(C(C(C)C1CCC2C1(CCC3C2CCC4C3(CC(C(C4)O)O)C)C)O)O'
p661
aS'CC(CCC(O)C(C)(C)O)C1CCC2C3=C(CCC21C)C1(C)CC(O)C(=O)C(C)(C)C1CC3'
p662
aS'CC(=O)OC1CCC2(C)C3CCC4(C)C(C(C)=CCCC(C)C)CCC4C3CC(OC(C)=O)C2C1'
p663
aS'Cn1nnc2ccc(C(c3ccc(Cl)cc3)n3cncn3)cc21'
p664
aS'CC(C)CCCC(C)C1CCC2=C3CCC4CC(=O)CCC4(C)C3CCC21C'
p665
aS'CC=C(CCC(C)C1CCC2C1(CCC3C2CC=C4C3(CCC(C4)O)C)C)C(C)C'
p666
aS'CC(C)CCCC(COS(=O)(=O)O)C1CCC2C3CC=C4C(O)C(OS(=O)(=O)O)CCC4(C)C3CCC12C'
p667
aS'CC(C)CCCC(C)C1CCC2C3CC=C4CC(OC(=O)Nc5ccc(I)cc5)CCC4(C)C3CCC12C'
p668
aS'CCCCCCCCC=CCCCCCCCC(=O)OC1CCC2(C)C(=CC(O)C3C4CCC(C(C)CCCC(C)C)C4(C)CCC32)C1'
p669
aS'C#CC1(O)CCC2C3CCc4cc(OC)ccc4C3CCC21C'
p670
aS'CC(C)CCCC(C)C1CCC2C3CC(=O)C4=CC(O)CCC4(C)C3CCC12C'
p671
aS'CC(=CCCC(C)C1CCC2C3C(O)CC4CC(O)CCC4(C)C3CC(O)C12C)C(=O)SCCNC(=O)CCNC(=O)C(O)C(C)(C)COP(=O)(O)OP(=O)(O)OCC1OC(n2cnc3c2ncnc3N)C(O)C1OP(=O)(O)O'
p672
aS'CC(C=CC1CC1C)C1CCC2C3CC=C4CC(O)CCC4(C)C3CCC12C'
p673
aS'CC(C)C(O)CCC(C)C1CCC2C3CC=C4CC(O)CCC4(C)C3CCC12C'
p674
aS'CC(C)CCCC(C)C1CCC2C3CC=C4CC(OS(=O)(=O)O)CCC4(C)C3CCC12C.CC1C=CC=CC=CC=CC=CC=CC=CC(OC2OC(C)C(O)C(N)C2O)CC2OC(O)(CC(O)CC(O)C(O)CCC(O)CC(O)CC(=O)OC(C)C(C)C1O)CC(O)C2C(=O)O'
p675
aS'CC(C)(O)CCCC(O)(CO)C1CCC2(O)C3=CC(=O)C4CC(O)C(O)CC4(C)C3CCC12C'
p676
aS'CC12CCC(=O)C=C1CCC3C2C(=O)CC4(C3CCC4=O)C'
p677
aS'C=C(CCC(C)C1CCC2C3CC=C4CC(O)CCC4(C(=O)OC)C3CCC12C)C(C)C'
p678
aS'[H]C1C([H])C2(C)C(=CCC3C4CCC(C(C)CCCC(C)C)C4(C)CCC32)CC1O'
p679
aS'CC(C)CCCC(C)C1CCC2C3CC=C4CC(OCCOCCOCCOC5OC(CO)C(O)C(O)C5O)CCC4(C)C3CCC12C'
p680
aS'CC(CO)CCC(O)C(C)C1C(O)CC2C3CC=C4CC(O)CCC4(C)C3CCC12C'
p681
aS'CC12CCC3C(C1CCC2O)CCC4=CC(=C(C=C34)OC)O'
p682
aS'CC(C)CCCC(C)C1CCC2C3CC=C4CC(O[Si](C)(C)CCC(F)(F)F)CCC4(C)C3CCC12C'
p683
aS'CC(C)CCCC(C)C1CCC2C3Cc4nn(-c5ccccc5)c5c4C(C)(CCC5=O)C3CCC12C'
p684
aS'CC(C)CCCC(C)C1CCC2C3=CCC4CC(O)C(C)(C)CC4(C)C3CCC21C'
p685
aS'CC(C)C(=C)CCC(C)C1CCC2(C1(CCC34C2CCC5C3(C4)CCC(C5(C)C)O)C)C'
p686
aS'COCCOCCOC(=O)OC1CCC2(C)C(=CCC3C4CCC(C(C)CCCC(C)C)C4(C)CCC32)C1'
p687
aS'CC(C)CCCC(C)C1CCC2C3CC=C4CC(OC5OC(CO)C(O)C(O)C5NC(=O)c5ccccc5)CCC4(C)C3CCC12C'
p688
aS'CC(C)CCCC(C)C1CCC2C3CC(=O)C4=CC(=NO)CCC4(C)C3CCC12C'
p689
aS'CCCCCCCCCC(=O)OC1CCC2(C)C(=CCC3C4CCC(C(C)CCCC(C)C)C4(C)CCC32)C1'
p690
aS'CC(=O)C1CCC2C3CCC4=CC(=O)CCC4(C)C3CCC12C'
p691
aS'CCCC=C(C)C1CCC2C3CC=C4CC(Oc5ccccc5)CCC4(C)C3CCC12C'
p692
aS'CC(C)CCCC(C)C1CCC2C3CC=C4CC(OC(=O)c5ccccc5O)CCC4(C)C3CCC12C'
p693
aS'CCCCCCCCCCCCCCCCCCCC(=O)OCC1OC(OC2CCC3(C)C(=CCC4C5CCC(C(C)CCCC(C)C)C5(C)CCC43)C2)C(O)C(O)C1O'
p694
aS'COc1ccc(C(=O)OC2C(O)C(O)COC2OC2C(O)COC(OC3CC4C5CC=C6CC(OC7OC(COC8OC(CO)C(OC9OC(CO)C(O)C(O)C9O)C(O)C8O)C(O)C(O)C7O)CCC6(C)C5CCC4(C)C3(O)C(C)C(=O)CCC(C)C)C2OC(C)=O)cc1OC'
p695
aS'CCOC1CCC2(C)C(=CCC3C4CCC(C(C)CCCC(C)C)C4(C)CCC32)C1'
p696
aS'CC(C)CCCC(C)C1CCC2C3C(=NN)CC4=CC(=NN)CCC4(C)C3CCC12C'
p697
aS'COCCOC(=O)OC1CCC2(C)C(=CCC3C4CCC(C(C)CCCC(C)C)C4(C)CCC32)C1'
p698
aS'CC(C)CCCC(C)C1CCC2C3CC=C4CC(OC5OC(COC=O)C(O)C(O)C5O)CCC4(C)C3CCC12C'
p699
aS'CC(C)CCCC(C)C1CCC2C3C(O)C=C4CC(O)CCC4(C)C3CC(O)C12C'
p700
aS'CC(C)CCCC(C)C1CCC2C3CC=C4CC(OC(=O)OCc5ccco5)CCC4(C)C3CCC12C'
p701
aS'CC(C)CCCC(C)C1CCC2C3CC=C4C(C)(C)C(O[Si](C)(C)C)CCC4(C)C3CCC12C'
p702
aS'CC12CCC(CC1CCC3C2CCC4(C3CCC4=O)C)O'
p703
aS'CC(C)CCCC(C)C1CCC2(C)C3=CCC4C(C)(C)C(O)CCC4(C)C3CCC12C'
p704
aS'CCOC(=O)C1(C#N)C2C(=O)CC3CCC4C5CCC(C(C)CCCC(C)C)C5(C)CCC4C3(C)C21'
p705
aS'CC(=O)C1(CCC2C1(CC(C3C2CCC4=CC(=O)CCC34C)O)C)O'
p706
aS'CCCCCCCCC=CCCCCCCCCCC(=O)OC1CCC2(C)C(=CCC3C4CCC(C(C)CCCC(C)C)C4(C)CCC32)C1'
p707
aS'CCCCCC(=O)OC1CCC2(C)C(=CCC3C4CCC(C(C)CCCC(C)C)C4(C)CCC32)C1'
p708
aS'CC1(O)CCC2C3CCC4=CC(=O)CCC4(C)C3(F)C(O)CC21C'
p709
aS'CC(C)CCCC(C)C1CCC2C3CC=C4CC(SC(=O)C(Cl)(Cl)Cl)CCC4(C)C3CCC12C'
p710
aS'CC(C)CCCC(C)C1CCC2C3=C(CCC21C)C1(C)CCC(O)C(C)C1CC3'
p711
aS'CC(C)CCCC(C)C1CCC2C3=C(C(O)CC21C)C1(C)CCCCC1CC3O'
p712
aS'CC(C)CCCC(C)C1CCC2(C)C3CCC4CC(O)CCC4(C)C3=CCC12C'
p713
aS'CC(C)CCCC(C)C1CCC2C3CC(O)C4=CCCCC4(C)C3CCC12C'
p714
aS'CC(C)CCCC(C)(O)C1C(O)CC2C3CCC4=CC(=O)C=CC4(C)C3CC(O)C21C'
p715
aS'CCCCCCCCC=CCCCCCCCCCCCC(=O)OCC1OC(OC2CCC3(C)C(=CCC4C5CCC(C(C)CCCC(C)C)C5(C)CCC43)C2)C(O)C(O)C1O'
p716
aS'CC(C)CCCC(C)C1CCC2(C)C3=C(CCC12C)C1(C)CCC(O)CC1CC3'
p717
aS'CC(C)CCCC(C)C1CCC2C3CCC4CC(OC(=O)CCC[N+](=O)[O-])=CCC4(C)C3CCC12C'
p718
aS'[Na+].[Na+].C=C(C)CCCC(COS(=O)(=O)[O-])C1CCC2C3CCC4(O)C(O)C(OS(=O)(=O)[O-])CCC4(C)C3CCC12C'
p719
aS'CCCCCCCCCCCCCCCCCCCCCCCCCCCC(=O)OC1CCC2(C)C(=CCC3C4CCC(C(C)CCCC(C)C)C4(C)CCC32)C1'
p720
aS'CC(C)CCCC(C)C1CCC2C3CC=C4CC(OC(=O)CCCCCCCCCCCNc5c([N+](=O)[O-])cc([N+](=O)[O-])cc5[N+](=O)[O-])CCC4(C)C3CCC12C'
p721
aS'CC(C)C(CCC(C)C1CCC2C1(CCC3C2C(C=C4C3(CCC(C4)O)C)O)C)O'
p722
aS'CC(C)CCCC(C)C1CCC2C3CC=C4CC(OCCCCCCCCCCCCc5cccc(I)c5)CCC4(C)C3CCC12C'
p723
aS'CC(C)=CCCC(C)C1CCC2(C)C3CCC4C5(CC35CCC12C)CCC(O)C4(C)C=O'
p724
aS'CC12CCC3C(CC=C4CCCCC43CO)C1CCC2=O'
p725
aS'CC(C)(O)CCC(O)C(C)(O)C1CCC2(O)C3=CC(=O)C4CC(O)C(O)CC4(C)C3CCC12C'
p726
aS'CC(C)CCCC(C)C1CCC2C3CC=C4CC(ON=O)CCC4(C)C3CCC12C'
p727
aS'CC(CO)CCC(=O)C(C)C1C(=O)CC2C3CC=C4CC(O)CCC4(C)C3CCC21C'
p728
aS'CCCCCCCCC(=O)OC1CCC2(C)C(=CCC3C4CCC(C(C)CCCC(C)C)C4(C)CCC32)C1'
p729
aS'[Na+].[Na+].CC(C)CCCC(COS(=O)(=O)[O-])C1CCC2C3CC=C4CC(O)C(OS(=O)(=O)[O-])CC4(C)C3CCC21C'
p730
aS'CC(C)(O)CCC(O)C(C)(O)C1CCC2(O)C3=CC(=O)C4CC(O)CCC4(C)C3CCC12C'
p731
aS'CC(C)C(CCC(C)C1CCC2C1(CCC3C2C(CC4=CC(=O)CCC34C)O)C)O'
p732
aS'N#Cc1ccc(C2CCCc3cncn32)cc1'
p733
aS'CC(C)CCCC(C)C1CCC2C3CC=C4CC(O)CCC4(C)C3CC(O)C12C'
p734
aS'CC12CCCC1C1CC=C3CC(O)CCC3(C)C1CC2'
p735
aS'CCC(CCC(C)C1CCC2C3=CCC4CC(O)CCC4(C)C3=CCC21C)C(C)C'
p736
aS'CC(C)CCCC(C)C1CCC2C3CCC4Cc5c(c6ccccc6n5C)CC4(C)C3CCC12C'
p737
aS'CC(C)CCCC(C)C1CCC2=C3C(=O)CC4CCCCC4(C)C3CCC21C'
p738
aS'Cc1c2ccccc2cc2c1CC1CCC3C4CCC(C(C)CCCC(C)C)C4(C)CCC3C1(C)C2'
p739
aS'CC(C)CCCC(C)C1CCC2C3CC=C4CC(P(=O)(c5ccccc5)c5ccccc5)CCC4(C)C3CCC12C'
p740
aS'CC(=C1C(OC(=O)c2cc([N+](=O)[O-])cc([N+](=O)[O-])c2)CC2C3CC=C4CC(OC(=O)c5cc([N+](=O)[O-])cc([N+](=O)[O-])c5)CCC4(C)C3CCC12C)C1CCC(C)CO1'
p741
aS'CC(C)CCCC(C)C1CCC2C3CC=C4CC(OCCO)CCC4(C)C3CCC12C'
p742
aS'CC(C)CCCC(C)C1CCC2C3CC=C4CC(OC(=O)c5ccccc5)CCC4(C)C3CCC12C'
p743
aS'COc1ccc2[nH]c3c(c2c1)CC1CCC2C4CCC(C(C)CCCC(C)C)C4(C)CCC2C1(C)C3'
p744
aS'CC12CC(O)C3C(CCC4=CC(=O)CCC43C)C1CCC2C(=O)CO'
p745
aS'CC1CC2=CC(=O)CCC2C2CCC3(C)C(O)CCC3C12'
p746
aS'CC(C)CCCC(C)C1CCC2C3CCC4=CC(S)CCC4(C)C3CCC21C'
p747
aS'CCCCCCCCCCCC(=O)OC1CCC2(C)C(=CCC3C4CCC(C(C)CCCC(C)C)C4(C)CCC32)C1'
p748
aS'CC12CCC(=O)C=C1CCC3C2C(=O)CC4(C3CCC4(C(=O)CO)O)C'
p749
aS'COc1ccc2[nH]c3c(c2c1)CC1(C)C2CCC4(C)C(C(C)CCCC(C)C)CCC4C2CC([N+](=O)[O-])C1C3'
p750
aS'CC(=CCCC(C)C1CCC2C3CCC4CC(O)CCC4(C)C3CCC12C)C(=O)O'
p751
aS'CC(C)C(C)C1(C)CC1C(C)C1CC(C2CC=C3CC(O)CCC3(C)C2=O)C(C)(CCO)C1'
p752
aS'CC12CCC(=O)CC1CCC3C2CCC4(C3CCC4=O)C'
p753
aS'CC1(O)CCC2C3CCC4=CC(=O)C=CC4(C)C3CCC21C'
p754
aS'CC(C)CCCC(C)C1CCC2C3CCC4Cc5c(ccc6cccc(N)c65)CC4(C)C3CCC12C'
p755
aS'CC(CCCC(C)(C)O)C1CCC2C1(CCC3C2C(CC4=CC(=O)CCC34C)O)C'
p756
aS'CC(CO)C(O)CCC(C)C1CCC2C3CC=C4CC(O)CCC4(C)C3CCC21C'
p757
aS'CC(=CCCC(C)C1CCC2C3C(O)CC4CC(O)CCC4(C)C3CCC12C)C(=O)O'
p758
aS'[Gd].CC12CCC3C(CCC4=CC(=O)CCC43C)C1CCC2C(=O)COCCCCCCN1CCN(CC(=O)O)CCN(CC(=O)O)CCN(CC(=O)O)CC1'
p759
aS'[Na+].[Na+].CC(C)=C(CC1OC2OC1(C)C1C(CC3C4CCC5CC(OS(=O)(=O)[O-])C(OS(=O)(=O)[O-])CC5(C)C4CCC31C)O2)C(C)C'
p760
aS'CC(C)CC1CC1(C)C1CCC2C3CC=C4CC(O)CCC4(C)C3CCC21C'
p761
aS'CC(=O)C1(CCC2C1(CCC3C2CC=C4C3(CCC(C4)O)C)C)O'
p762
aS'CC(C)CCCC(C)C1CC(=O)C2(C)C3=CCC4CC(OC(=O)c5ccccc5)CCC4(C)C3CCC12C'
p763
aS'CC(CO)CCCC(C)C1CCC2C3CC=C4CC(OS(=O)(=O)OS(=O)(=O)O)CCC4(C)C3CCC12C'
p764
aS'CC(=O)OC1CCC2(C)C(CC=C3C4CCC(C(C)CCCC(C)C)C4(C)CCC32)C1'
p765
aS'COc1ccc2c(c1)c1c(n2C=O)CC2(C)C(CCC3C4CCC(C(C)CCCC(C)C)C4(C)CCC32)C1'
p766
aS'CC12CCC(CC1CCC3C2CCC4(C3CCC4O)C)O'
p767
aS'CC(=O)OC1=CC2=CCC3C4CCC(C(C)CCCC(C)C)C4(C)CCC3C2(C)CC1'
p768
aS'CC(C)CCCC(C)C1CCC2C3=CC(O)C4(O)CC(O)CCC4(C)C34OC4CC12C'
p769
aS'CCC=CCC=CCC=CCC=CCC=CCCCC(=O)OC1CCC2(C)C(=CCC3C4CCC(C(C)CCCC(C)C)C4(C)CCC32)C1'
p770
aS'CCCCCCCCCCCCCCCCCCC(=O)OC1CCC2(C)C(=CCC3C4CCC(C(C)CCCC(C)C)C4(C)CCC32)C1'
p771
aS'Cc1ccc(S(=O)(=O)NN=C2C=C3CCC4C5CCC(C(C)CCCC(C)C)C5(C)CCC4C3(C)CC2)cc1'
p772
aS'CC(C)CCCC(C)C1CCC2C3CC=C4C(C)C(O[Si](C)(C)C)CCC4(C)C3CCC12C'
p773
aS'CCCCCCCC1CC2C3CCC(=O)C3(C)CCC2C2(C)C=CC(=O)C=C12'
p774
aS'CC(C)CCCC(C)C1CCC2C3CC=C4CC(OC(=O)CCC5CCCCC5)CCC4(C)C3CCC12C'
p775
aS'CC(C)CCCC(C)C1CCC2C3CCC4=CC(=O)C(=CO)CC4(C)C3CCC12C'
p776
aS'CC(=O)OC1CCC2(C)C(=CCC3C4CC(O)C(C(C)CCCC(C)CNN=O)C4(C)CCC32)C1'
p777
aS'CC(C)CCCC(C)C1CCC2C3CCC4Cc5c(cc(N(C)C)c6ccccc65)CC4(C)C3CCC12C'
p778
aS'CC1C2CCC3C4(CCC(C4(CCC35C2(C5)CCC1O)C)C(C)CCC(=C)C(C)C)C'
p779
aS'CCCCCCCCCCCCCCCCCC(=O)OC1CCC2(C)C(=CC(O)C3C4CCC(C(C)CCCC(C)C)C4(C)CCC32)C1'
p780
aS'CCCN(CCC)S(=O)(=O)c1ccc(N(C(=O)[O-])C2CCC3(C)C(=CCC4C5CCC(C(C)CCCC(C)C)C5(C)CCC43)C2)cc1'
p781
aS'CC(C)C(C)CCC(C)C1CCC2C3CCC4=CC(O)CCC4(C)C3CCC12C'
p782
aS'CC1=C2CC(O)CCC2(C)C2CCC3(C)C(C(C)CCCC(C)C)CCC3C2C1'
p783
aS'C=C1CCC(O)CC1=CC=C1CCCC2(C)C1CCC2C(C)CCCC(C)C.CC(C)CCCC(C)C1CCC2C3CC=C4CC(O)CCC4(C)C3CCC12C'
p784
aS'CC(C)C=CCC(C)C1CCC2C3CCC4CCCCC4(C)C3CCC12C'
p785
aS'CC(C)C(C)C=CC(C)C1CCC2C1(CCC3C2=CC=C4C3(CCC(C4)O)C)C'
p786
aS'CC(=O)OC1C=C2CCC3C4CCC(C(C)CCCC(C)C)C4(C)CCC3C2(C)CC1'
p787
aS'Cc1cc2ccccc2c2c1CC1CCC3C4CCC(C(C)CCCC(C)C)C4(C)CCC3C1(C)C2'
p788
aS'CC(=CCCC(C)C1CCC2C3CCC4CC(O)CCC4(C)C3CC(O)C12C)C(=O)O'
p789
aS'CC(C)CCCC(C)C1CCC2C3CC=C4CC(C(=O)NCC[N+](C)(C)CCCS(=O)(=O)O)CCC4(C)C3CCC12C'
p790
aS'CC(C)CCCC(C)C1CCC2C3CC=C4CC(OCN5CCCCC5)CCC4(C)C3CCC12C'
p791
aS'[Na+].CC(C)C(C=CC(C)C1CC(O)C2C1(C)CCC1C3(C)CCC(OS(=O)(=O)[O-])CC3C(O)CC21O)OC1OCC(O)C(O)C1O'
p792
aS'CC(C)CCCC(C)C1CCC2C(=CCO)C(C3(C)CCC(O)CC3O)CCC21C'
p793
aS'COCC12CCC(O)CC1=CCC1C3CCC(C(C)CCCC(C)C)C3(C)CCC12'
p794
aS'CCCCCC(=CCC=CCCCCCCCC(=O)OC1CCC2(C)C(=CCC3C4CCC(C(C)CCCC(C)C)C4(C)CCC32)C1)[N+](=O)[O-]'
p795
aS'CC(C)CCC(O)C(C)C1C(OC2OC(CO)C(O)C(O)C2O)CC2C3CC=C4CC(OC5OC(CO)C(OC6OC(C)C(O)C(O)C6O)C(O)C5OC5OC(C)C(O)C(O)C5O)CCC4(C)C3CCC12C'
p796
aS'CC1C2CCC3=C(C2(CCC1O)C)CCC4(C3=CCC4C(C)CCC(=C)C(C)C)C'
p797
aS'CC(C)CCCC(C)C1CCC2(C)C3CCC4=CC(=O)CCC4(C)C3CCC12C'
p798
aS'CC(C)CCCC(C)C1CCC2C3CC(=O)C4=CC(F)CCC4(C)C3CCC12C'
p799
aS'CC(=CCCC(C)C1CCC2C3C(O)CC4CC(O)CCC4(C)C3CC(O)C12C)C(=O)O'
p800
aS'CC(C)CCCC(C)C1CCC2C3CC=C4CC(OCCOCCOCCOCCOP(O)(=S)OCCOC5OC(CO)C(O)C(O)C5O)CCC4(C)C3CCC12C'
p801
aS'CC12C=CCC1C1CCC3CC(=O)CCC3(C)C1CC2'
p802
aS'CCN(CC)C1=CCC2(C)C(CCC3C4CCC(C(C)CCCC(C)C)C4(C)CCC32)C1'
p803
aS'COC(=O)OC1CCC2(C)C(=CCC3C4CCC(C(C)CCCC(C)C)C4(C)CCC32)C1'
p804
aS'[H]C([H])([H])C(C)(O)CCCC(C)C1CCC2C3CC=C4CC(O)CCC4(C)C3CCC12C'
p805
aS'CC(C)CCCC(C)C1CCC2C3CC(=O)C4Cc5c(c6ccccc6n5C)CC4(C)C3CCC12C'
p806
aS'CC(C)CCCC(C)C1CCC2C3C=CC4(O)CC(O)CCC4(C)C3CCC12C'
p807
aS'CC12CCC3C(CC=C4C(O)CCCC43CO)C1CCC2=O'
p808
aS'[Na].CC(C)CCCC(C)C1CCC2C3CC(O)C4CC(OS(=O)(=O)O)CCC4(C)C3CCC12C'
p809
aS'CC12CCC3C(C1CCC2C(=O)CO)CC=C4C3(CCC(C4)O)C'
p810
aS'CCCCNC(=O)OC1CCC2(C)C(=CCC3C4CCC(C(C)CCCC(C)C)C4(C)CCC32)C1'
p811
aS'CC(C)CCCC(C)C1CCC2C3=CC(NCCCNCCCCN)C4(O)CC(O)CCC4(C)C3CCC21C'
p812
aS'CC(C)CCCC(C)C1CC(O)C2=C3C(O)CC4CC(O)CCC4(C)C3CCC21C'
p813
aS'CC(C)CCCC(C)C1CC=C2C3CCC4CCCCC4(C)C3CCC21C'
p814
aS'CC(C)CCCC(C)C1CCC2C3=C(CCC12C)C1(C)CCC(O)C(C)(C)C1CC3'
p815
aS'CC(C)CCCC(C)C1CCC2C3CC=C4CC(OC(=O)CCC(=O)OC5CCC6(C)C(=CCC7C8CCC(C(C)CCCC(C)C)C8(C)CCC76)C5)CCC4(C)C3CCC21C'
p816
aS'CC(=O)OC1CCC2(C)C(=CC(O)C3C4CCC(C(C)CCCC(C)C)C4(C)CCC32)C1'
p817
aS'CC(C)CCCC(C)C1CCC2C3=CC4OC45CC(O)CCC5(C)C3CCC21C'
p818
aS'CCCCCC(C)C1CCC2(O)C3=CC(=O)C4CC(O)C(O)CC4(C)C3CCC12C'
p819
aS'CC(C)CCCC(C)C1CCC2C3CC=C4CC(OC(=O)c5ccc([N+](=O)[O-])cc5)CCC4(C)C3CCC12C'
p820
aS'CC(CO)C(C)C(C(C(C)C1CCC2C1(CCC3C2COC(=O)C4C3(CC(C(C4)O)O)C)C)O)O'
p821
aS'CC(C)C(O)CCC(C)C1CCC2C3CCC4=CC(=O)CCC4(C)C3CCC12C'
p822
aS'CC12CCCC1C1CCC3CC(=O)CCC3(C)C1CC2'
p823
aS'CC(C)CCCC(C)C1CCC2C3=C(CCC21C)C1(C)CCC(=O)CC1CC3'
p824
aS'CC(C)CCCC(C)C1CCC2C3=C(C(=O)CC21C)C1(C)CCCCC1CC3'
p825
aS'CCCCC(CC)COC(=O)OC1CCC2(C)C(=CCC3C4CCC(C(C)CCCC(C)C)C4(C)CCC32)C1'
p826
aS'CC(C)CCCC(C)C1CCC2C3CC=C4CC(O)CCC4(C)C3CCC12C'
p827
aS'CC(C)CCCC(C)C1CCC2C3CC=C4CC(OC5OC(C)C(O)C(O)C5O)CCC4(C)C3CCC12C'
p828
aS'CC(C)CCCC(C)C1CCC2C3CC=C4CC(OC(=O)Cl)CCC4(C)C3CCC12C'
p829
aS'CCCCCCCCC=CCCCCCCCCOC1CCC2(C)C(=CCC3C4CCC(C(C)CCCC(C)C)C4(C)CCC32)C1'
p830
aS'CC(C)CCCC(C)C1CCC2C1(CCC3=C2CCC4C3(CCC(C4)O)C)C'
p831
aS'CC(C)C(C)CCC(C)C1CCC2=C3CCC4CC(O)CCC4(C)C3CCC21C'
p832
aS'CC(C)=CCCC(C)C1C(=O)CC2C3CCC4CCCCC4(C)C3CCC21C'
p833
aS'CC(=O)OC1CCC2(C)C(CCC3=C4C(=O)CC(C(C)CCCC(C)C)C4(C)CCC32)C1'
p834
aS'CC1(C)OC2CC3C4CC(F)C5=CC(=O)C=CC5(C)C4(F)C(O)CC3(C)C2(C(=O)CO)O1'
p835
aS'CC(C)CC=CC(COS(=O)(=O)O)C1CCC2C3CCC4C(O)C(OS(=O)(=O)O)CCC4(C)C3C(O)CC12C'
p836
aS'CC(C)CCCC(C)C1CCC2C3CC=C4CC(OC(=O)CC5CCCCC5)CCC4(C)C3CCC12C'
p837
aS'CC(C)CCCC(C)C1CCC2C3CC=C4CCCCC4(C)C3CCC12C'
p838
aS'CC(=O)OC1CC(C(C)CCCC(C)C)C2(C)CCC3C(=C12)C(OC(C)=O)CC1CC(OC(C)=O)CCC13C'
p839
aS'CC(C)CC(=O)CC(C)C1CCC2C3CC(O)C4CC(O)CCC4(C)C3=CCC12C'
p840
aS'CC(C)CCCC(C)C1CCC2C3CC=C4CC(OC(=O)C(C)c5ccc(CC(C)C)cc5)CCC4(C)C3CCC12C'
p841
aS'CCC(C)(C)C(=O)OC1CC(C)C=C2C=CC(C)C(CCC3CC(O)CC(=O)O3)C21'
p842
aS'CC(C)CCCC(C)C1CCC2C3CC=C4CC(OC(=O)C(C)C)CCC4(C)C3CCC12C'
p843
aS'CC(CO)CCCC(C)C1CCC2C3C(O)C=C4CC(O)CCC4(C)C3CCC12C'
p844
aS'CCCCC=C(C)C1CCC2C3CC=C4CC(OC(C)=O)CCC4(C)C3CCC12C'
p845
aS'CC(C)CCCC(C)C1CCC2C3CCC4c5c6ccccc6[nH]c5CCC4(C)C3CCC12C'
p846
aS'CC(C)CCCC(C)C1CCC2C3CC=C4CC(OC(=O)OCC5(C)OOC5(C)C)CCC4(C)C3CCC12C'
p847
aS'COc1cccc2c1c1c(n2C)CC2(C)C(CCC3C4CCC(C(C)CCCC(C)C)C4(C)CCC32)C1'
p848
aS'CC(=O)OC1C=C2C(OC(C)=O)CC3C4CCC(C(C)CCCC(C)C)C4(C)CCC3C2(C)CC1'
p849
aS'CC(C)CCCC(C)C1CCC2C3CC=C4CC(O)CCC4(C)C3CCC12C.O=C(O)CC(SC(CC(=O)O)C(=O)O)C(=O)O'
p850
aS'CC(C(=O)O)C1CCC2(C)C3=C(CCC12C)C1(C)CCC(=O)C(C)(C)C1CC3'
p851
aS'N.N.[Pt+4].CC(C)CCCC(C)C1CCC2C3CC=C4CC(OC(=O)CC(CC(=O)[O-])C(=O)[O-])CCC4(C)C3CCC21C'
p852
aS'CC(C)CCCC(C)C1CCC2C3CCC4=CC(=NOCC(=O)O)CCC4(C)C3CCC12C'
p853
aS'CC(C)CCCC(C)C1CCC2C3Cc4nn(-c5ccccc5)c5c4C(C)(CCC5)C3CCC12C'
p854
aS'CC(=CCC(C)C1CCC2C3C(O)CC4CC(O)CCC4(C)C3CC(O)C12C)C(C)C(=O)O'
p855
aS'CC(C)CCCC(C)C1CCC2C3CC=C4CC(OCCCl)CCC4(C)C3CCC12C'
p856
aS'CC(C)CCCC(C)C1CC2OC23C2=CCC4CC(OC(=O)c5ccccc5)CCC4(C)C2CCC13C'
p857
aS'CC(C)CCCC(C)C1CCC2C1(CCC3C2C(C=C4C3(CCC(C4)O)C)O)C'
p858
aS'CC(C)CCCC(C)C1CCC2C3=CC(OS(=O)(=O)O)C4(O)CC(O)CCC4(C)C3(O)CCC21C'
p859
aS'CC(C)CCC(C)CC(C)C1CCC2C3CC=C4CC(O)CCC4(C)C3CCC12C'
p860
aS'CCC(C=CC(C)C1CCC2C3CCC4C(C)C(O)CCC4(C)C3CCC12C)C(C)C'
p861
aS'CCC12C3=CCC4CC(O)CCC4(C)C3CCC1(C)C(C(C)CCCC(C)C)CC2O'
p862
aS'CC(C)CCC(=O)C(C)C1CCC2C3CC=C4CC(O)CCC4(C)C3CCC12C'
p863
aS'[H]C([H])([H])C([H])(CCCC(C)C1CCC2C3CC=C4C(OC(C)=O)C(O)CCC4(C)C3CCC12C)C([H])([H])[H]'
p864
aS'CC(CCCC(C)C1CCC2C3CC=C4CC(OC(=O)c5cc([N+](=O)[O-])cc([N+](=O)[O-])c5)CCC4(C)C3CCC12C)COC(=O)c1cc([N+](=O)[O-])cc([N+](=O)[O-])c1'
p865
aS'CC(C)CCCC(C)C1CCC2C3=C(C(=O)CC21C)C1(C)CCC(O)CC1CC3'
p866
aS'CC(CCC(C)C1CCC2C3CC=C4CC(O)CCC4(C)C3CCC12C)C1CC1C'
p867
aS'CC(C)C(C)C(C(C(C)C1CCC2C1(CCC3C2CC(=O)C4C3(CCC(=O)C4)C)C)O)O'
p868
aS'CC(C)CCCC(C)C1CC=C2C3CCC4CC(O)CCC4(C)C3CCC21C'
p869
aS'[Br-].[Br-].CC(=O)OC1C([N+]2(C)CCCCC2)CC2C3CCC4CC(OC(C)=O)C([N+]5(C)CCCCC5)CC4(C)C3CCC21C'
p870
aS'CC(C)CCCCCCCCCCCCCCC(=O)OC1CCC2(C)C(=CCC3C4CCC(C(C)CCCC(C)C)C4(C)CCC32)C1'
p871
aS'CC(=O)OCC(C)CCCC(C)C1CCC2C3CCC4CCCCC4(C)C3CCC12C'
p872
aS'CCCCC(=O)OC1CCC2(C)C(=CCC3C4CCC(C(C)CCCC(C)C)C4(C)CCC32)C1'
p873
aS'CC(C)CCCC(C)C1CCC2C3CC=C4CC(OC(=O)C(F)(F)F)CCC4(C)C3CCC12C'
p874
aS'CC(C)C(C)C1CC1C(C)C1CCC2C3CC=C4CC(O)CCC4(C)C3CCC12C'
p875
aS'CC(C)=CCCC(COS(=O)(=O)O)C1CCC2C3CCC4CC(OS(=O)(=O)O)C(O)CC4(C)C3CCC12C'
p876
aS'CC(C)CCC(O)C(C)(O)C1CCC2C3CC=C4CC(O)CCC4(C)C3CCC21C'
p877
aS'CC(CO)CCCC(C)C1CCC2C3CC=C4CC(O)CCC4(C)C3CCC12C'
p878
aS'Cc1ccc2[nH]c3c(c2c1)CC1(C)C(CCC2C4CC(C(C)CCCC(C)C)CC4(C)CCC21)C3'
p879
aS'CC(CO)CCC(O)C(C)C1C(O)CC2C3CC=C4CC(O)CCC4(C)C3CCC21C'
p880
aS'C=C(C)CCCC(COS(=O)(=O)O)C1CCC2C3CCC4C(O)C(OS(=O)(=O)O)CCC4(C)C3CCC12C'
p881
aS'COc1ccc2c(c1)c1c(n2C)CC2(C)C(CCC3C4CCC(C(C)CCCC(C)C)C4(C)CCC32)C1'
p882
aS'CCCCCCCCC=CCCCCCCCC(=O)OCC1OC(OC2CCC3(C)C(=CCC4C5CCC(C(C)CCCC(C)C)C5(C)CCC43)C2)C(O)C(O)C1O'
p883
aS'CC12CCC3C(C1CCC2=O)C(C=C4C3(CCC(C4)O)C)O'
p884
aS'CC(=CCCC(C)C1CCC2C3C(O)CC4CC(O)CCC4(C)C3CCC12C)C(=O)SCCNC(=O)CCNC(=O)C(O)C(C)(C)COP(=O)(O)OP(=O)(O)OCC1OC(n2cnc3c2ncnc3N)C(O)C1OP(=O)(O)O'
p885
aS'CC(C)CCCC(C)C1CCC2C3CC=C4C(C)(C)CCCC4(C)C3CCC12C'
p886
aS'CC(C)CCCC(C)C1CCC2C3CC=C4C(C)C(O)CCC4(C)C3CCC21C'
p887
aS'[H]C([H])([H])C1(C([H])([H])[H])OC1CCC(C)C1CCC2C3CC=C4CC(O)CCC4(C)C3CCC12C'
p888
aS'CC(C)CCCC(C)C1CCC2C3CCC4C(C)(C)C(SCc5ccccc5)=CCC4(C)C3CCC12C'
p889
aS'CC1CC(O)C2(O)OC3CC4(C=O)C(CCC5C4C=CC4(C)C(C6=CC(=O)OC6)CCC54O)CC3OC2O1'
p890
aS'[Na+].CC(C)CCCC(C)C1CCC2C3CC=C4CC(OP(=O)([O-])OC5=C(O)C(C(O)CO)OC5=O)CCC4(C)C3CCC12C'
p891
aS'CC1(O)CCC2C3CCC4=CC(=O)CCC4=C3C=CC21C'
p892
aS'CC12CCC3C(C1CCC2=O)CCC4=CC(=C(C=C34)OC)O'
p893
aS'CC(=O)OC1CCC2(C)C(CC(OS(C)(=O)=O)C3C4CCC(C(C)CCCC(C)C)C4(C)CCC32C#N)C1'
p894
aS'CC(C)(O)C(O)CC(O)C(C)(O)C1CCC2(O)C3=CC(=O)C4CC(O)C(O)CC4(C)C3CCC12C'
p895
aS'CCOC(=O)C1(C(=O)OCC)C2C(=O)CC3CCC4C5CCC(C(C)CCCC(C)C)C5(C)CCC4C3(C)C21'
p896
aS'CC12CCCC1C1CCC3CC(OO)CCC3(C)C1CC2'
p897
aS'CC(=O)OCC12CCC(OC(C)=O)CC1=CCC1C3CCC(C(C)CCCC(C)C)C3(C)CCC12'
p898
aS'CC(C)CCCC(C)C1CCC2C1(CCC3C2=CCC4C3(CCC(C4)O)C)C'
p899
aS'CCC(C=CC(C)C1CC=C2C3CCC4CC(O)CCC4(C)C3CCC21C)C(C)C'
p900
aS'CC(C)CCCC(C)C1CCC2C3CC4OS(=O)(=O)OS(=O)(=O)OC5CCC(C)(C4C5)C3CCC12C'
p901
aS'CC(=O)OC1CCC2(C)C(=CC(Nc3ccccc3)C3C4CCC(C(C)CCCC(C)C)C4(C)CCC32)C1'
p902
aS'CC(C1CCC2C3=CC(=O)C4CC(OC5OC(CO)C(O)C(O)C5OC5OC(C)C(O)C(O)C5O)CCC4(C)C3CCC21C)C1CCC(C)C(OC2OC(C)C(O)C(O)C2O)O1'
p903
aS'CCCCCCCCCCCC1(CCCC(=O)OC2CCC3(C)C(=CCC4C5CCC(C(C)CCCC(C)C)C5(C)CCC43)C2)OCC(C)(C)[N+]1=O'
p904
aS'CC(=O)C1(OC(=O)c2ccc(Br)cc2)CCC2C3CCC45OC4C(=O)CCC5(C)C3CCC21C'
p905
aS'CC(C)CCCC(C)C1CCC2C3CC=C4CC(B(O)O)CCC4(C)C3CCC12C'
p906
aS'Cc1cn(C2CC(OP(=O)(O)OCC3OC(n4cnc5c4ncnc5N)CC3OP(=O)(O)OCC3OC(n4ccc(N)nc4=O)CC3OP(=O)(O)OCC3OC(n4cc(C)c(=O)[nH]c4=O)CC3OP(=O)(O)OCC3OC(n4ccc(N)nc4=O)CC3OP(=O)(O)OCC3OC(n4cnc5c4ncnc5N)CC3OP(=O)(O)OCC3OC(n4ccc(N)nc4=O)CC3OP(=O)(O)OCC3OC(n4ccc(N)nc4=O)CC3OP(=O)(O)OCC3OC(n4cnc5c4ncnc5N)CC3OP(=O)(O)OCC3OC(n4cnc5c4nc(N)[nH]c5=O)CC3OP(=O)(O)OCC3OC(n4cc(C)c(=O)[nH]c4=O)CC3OP(=O)(O)OCC3OC(n4ccc(N)nc4=O)CC3OP(=O)(O)OCC3OC(n4cnc5c4nc(N)[nH]c5=O)CC3OP(=O)(O)OCC3OC(n4ccc(N)nc4=O)CC3OP(=O)(O)OCC3OC(n4ccc(N)nc4=O)CC3OP(=O)(O)OCC3OC(n4cnc5c4nc(N)[nH]c5=O)CC3OP(=O)(O)OCC3OC(n4ccc(N)nc4=O)CC3O)C(COP(=O)(O)OC3CC(n4cnc5c4nc(N)[nH]c5=O)OC3COP(=O)(O)OC3CC(n4ccc(N)nc4=O)OC3COP(=O)(O)OC3CC(n4cnc5c4nc(N)[nH]c5=O)OC3COP(=O)(O)OC3CC(n4cnc5c4nc(N)[nH]c5=O)OC3COP(=O)(O)OC3CC(n4cc(C)c(=O)[nH]c4=O)OC3COP(=O)(O)OC3CCC4(C)C(=CCC5C6CCC(C(C)CCCC(C)C)C6(C)CCC54)C3)O2)c(=O)[nH]c1=O'
p907
aS'CC(C)CCCC(C)C1CCC2(C)C3CC=C4CC(O)CCC4(C)C3CCC12C'
p908
aS'CC(=CC(C)C1CCC2C3CCC4C(C)C(O[Si](C)(C)C)CCC4(C)C3CCC12C)C(C)C(C)C'
p909
aS'COc1ccc2[nH]c3c(c2c1)CC1(C)C(CCC2C4CCC(C(C)CCCC(C)C)C4(C)CCC21)C3'
p910
aS'CC(=O)C1CCC2C1(CC(C3C2CCC4=CC(=O)CCC34C)O)C'
p911
aS'CCC=CCC=CCC=CCCCCCCCC(=O)OC1CCC2(C)C(=CCC3C4CCC(C(C)CCCC(C)C)C4(C)CCC32)C1'
p912
aS'C=C(CCCC(C)C)C1CCC2C3CC(O)C4CC(O)CCC4(C)C3CCC12C'
p913
aS'C=C(CCC(C)C1CCC2C3CC4OC45CC(O)CCC5(CO)C3CCC12C)C(C)C'
p914
aS'CC(C)CCCC(C)C1CCC2(C)C3=CCC4CC(O)CCC4(C)C3CCC12C'
p915
aS'CC(C)CCCC(C)C1CCC2C3CC=C4CC(OCCOCCOCCO)CCC4(C)C3CCC12C'
p916
aS'COc1ccc2cc3c(cc2c1)CC1(C)C(CCC2C4CCC(C(C)CCCC(C)C)C4(C)CCC21)C3'
p917
aS'C=C(CCC(C)C1CCC2C3C(=O)CC4=C(CCC(O)C4)C3CCC12C)C(C)C'
p918
aS'CC(C)CCCC(C)C1CC=C2C3CCC4C(C)C(O)CCC4(C)C3CCC21C'
p919
aS'CC(CCC=C(C)C)C1CC=C2C1(CCC3=C2CCC4C3(CCC(C4(C)C)O)C)C'
p920
aS'O=C(c1nc2ccc(Cl)cc2[nH]c1=O)C(O)c1ccc(Cl)c(Cl)c1'
p921
aS'CC(C)CCCC(C)C1CCC2C1(CCC3C2C(CC4C3(CCC(C4)O)C)O)C'
p922
aS'CC(C)CCCC(C)C1CC(=O)C2(C)C3=CCC4CC(O)CCC4(C)C3CCC12C'
p923
aS'CC(C)CCCC(C)C1CCC2C3CC(=O)C4CC(Cl)CCC4(C)C3CCC12C'
p924
aS'CC(C)(O)CCC(O)C(C)(O)C1CCC2(O)C3=CC(=O)C4(O)CC(OC5OC(CO)C(O)C(O)C5O)C(O)CC4(C)C3CCC12C'
p925
aS'CC(C)CCCC(C)C1CCC2C3CC=C4CC(OC(=O)CCCCCCCCCCCNC(=O)c5cc(I)c(N=[N+]=[N-])cc5O)CCC4(C)C3CCC12C'
p926
aS'CCOCCOCCOC(=O)OC1CCC2(C)C(=CCC3C4CCC(C(C)CCCC(C)C)C4(C)CCC32)C1'
p927
aS'COc1ccc(C(=O)OC2C(O)COC(OC3C(O)COC(OC4CC5C6CC=C7CC(OC8OC(COC9OC(CO)C(OC%10OC(CO)C(O)C(O)C%10O)C(O)C9O)C(O)C(O)C8O)CCC7(C)C6CCC5(C)C4(O)C(C)C(=O)CCC(C)C)C3OC(C)=O)C2O)cc1OC'
p928
aS'CC(C)CCCC(C)C1CCC2C3CC=C4CC(OC(=O)C=Cc5ccccc5O)CCC4(C)C3CCC12C'
p929
aS'CC(C)CCCC(C)C1CCC2(O)C3=CC(=O)C4CC(=O)CCC4(C)C3CCC12C'
p930
aS'CC(=O)OCC1OC(OC2CC3C4CC=C5CC(OC6OC(CO)C(OC7OC(C)C(O)C(O)C7O)C(O)C6OC6OC(C)C(O)C(O)C6O)CCC5(C)C4CC(=O)C3(C)C2C(C)C(O)CCC(C)C)C(O)C(O)C1O'
p931
aS'CC(CCCC(C)C(=O)O)C1CCC2C3=CCC4CC(=O)CCC4(C)C3CCC21C'
p932
aS'CC(C)CCCC(C)C1CC2C3CCC4Cc5c(c6ccccc6n5Cc5ccccc5)CC4(C)C3CCC2(C)C1'
p933
aS'CC(O)(C1CCC(C)(C)O1)C1CCC2(O)C3=CC(=O)C4(O)CC(O)C(O)CC4(C)C3CCC12C'
p934
aS'CC(C)CCCC(C)C1CCC2C3=CCC4C(C)C(=O)CCC4(C)C3CCC21C'
p935
aS'CCCCCCC(O)CCCCCCCCCCC(=O)OC1CCC2(C)C(=CCC3C4CCC(C(C)CCCC(C)C)C4(C)CCC32)C1'
p936
aS'COc1ccc(C(=O)OC2C(O)C(O)COC2OC2C(OC(C)=O)C(OC3CC4C5CC=C6CC(OC7OC(CO)C(O)C(O)C7O)CCC6(C)C5CCC4(C)C3(O)C(C)C(=O)CCC(C)C)OCC2O)cc1OC'
p937
aS'CC(=O)NC1C(C(OS(=O)(=O)O)C(COS(=O)(=O)O)OS(=O)(=O)O)OC(OC2CCC3(C)C(=CCC4C5CCC(C(C)CCCC(C)C)C5(C)CCC43)C2)(C(=O)O)CC1OS(=O)(=O)O'
p938
aS'CCCCCCCCCCCCCCCC(=O)OC1CC2C(=O)C=C3C(CCC4(C)C(C(C)C(O)CCC(C)(C)O)CCC34O)C2(C)CC1O'
p939
aS'CC(C)CCCC(C)C1CCC2C3CCC4Cc5cc6ccccc6c([N+](=O)[O-])c5CC4(C)C3CCC12C'
p940
aS'CC(CCC=C(C)C)C1CCC2C1(CCC3C2=CC=C4C3(CCC(C4)O)C)C'
p941
aS'CC(C)CCCC(C)C1CCC2C3CC=C4CC(OP(C)(O)=S)CCC4(C)C3CCC12C'
p942
aS'CC(C)CCCC(C)C1CCC2C3CC=C4C(C)(C)C(=O)CCC4(C)C3CCC12C'
p943
aS'CCCCCC=CCC=CCCCCCCCCCC(=O)OC1CCC2(C)C(=CCC3C4CCC(C(C)CCCC(C)C)C4(C)CCC32)C1'
p944
aS'CC(C)CCCC(C)C1CC(O)C2C3=C(CCC12C)C1(C)CCC(O)CC1CC3'
p945
aS'CC(C)CCCC(C)C1CCC2C3=CCC4CCCCC4(C)C3CCC21C'
p946
aS'CCCCCC1CC2C3CCC(=O)C3(C)CCC2C2(C)C=CC(=O)C=C12'
p947
aS'CC(C)CCCC(C)C1CCC2C1(C)CCC1C2(O)C=CC2(O)CC(O)CCC12C'
p948
aS'CC(C)CCCC(C)C1CCC2C3CCC4C(C)C=CCC4(C)C3CCC12C'
p949
aS'CC(=O)OC1CCC2(C)C(=CCC3C4CCC(C(C)CCCC(C)C)C4(C)CCC32)C1(C)C'
p950
aS'CC(C)CCCC(C)C1CCC2C3CC([N+](=O)[O-])C4Cc5[nH]c6ccc(OCc7ccccc7)cc6c5CC4(C)C3CCC12C'
p951
aS'CC(C)CCC(C)C1CCC2C3CC=C4CC(O)CCC4(C)C3CCC12C'
p952
aS'COC(=O)C12CCC(O)CC1=CCC1C3CCC(C(C)CCCC(C)C)C3(C)CCC12'
p953
aS'CC(C)CCC(O)C(C)(O)C1CCC2(O)C3=CC(=O)C4(O)CC(O)C(O)CC4(C)C3C(O)CC12C'
p954
aS'Cc1cc2nc3c(nc2cc1C)C1CCC2C4CCC(C(C)CCCC(C)C)C4(C)CCC2C1(C)CC3'
p955
aS'CCC(=O)OC1CCC2(C)C(=CCC3C4CCC(C(C)CCCC(C)C)C4(C)CCC32)C1'
p956
aS'CC(C)CCCC(C)C1CCC2=C3C(O)CC4CCCCC4(C)C3CCC21C'
p957
aS'C#CC1(O)CCC2C3CCC4=Cc5oncc5CC4(C)C3CCC21C'
p958
aS'CC(=O)OC1CCC2(C)C3CCC4(C)C(CCC4C(C)CCCC(C)C)C3=CCC2C1(C)C'
p959
aS'CC(C)CCCC(C)C1CCC2C3CCC4c5c6ccccc6n(Cc6ccccc6)c5CCC4(C)C3CCC12C'
p960
aS'CCCOC(=O)OC1CCC2(C)C(=CCC3C4CCC(C(C)CCCC(C)C)C4(C)CCC32)C1'
p961
aS'CC(C)CCCC(C)C1CCC2C3CC=C4CC(OC(=O)CC(Cl)=C(Cl)Cl)CCC4(C)C3CCC12C'
p962
aS'Cc1ccc(S(=O)(=O)NN=C2CCC3(C)C(=CC(=NNS(=O)(=O)c4ccc(C)cc4)C4C5CCC(C(C)CCCC(C)C)C5(C)CCC43)C2)cc1'
p963
aS'CC(=CCCC(C)C)C1CCC2C3CC(=O)C4CC(=O)CCC4(C)C3CCC12C'
p964
aS'CC(C)CCCC(C)C1CCC2C3CC=C4CC(OC(=O)CC(Cl)=C(Cl)Cl)CCC4(C)C3CCC21C'
p965
aS'CC(C)CCCC(C)C1CCC2=C3CCC4CC(O[Si](C)(C)C)CCC4(C)C3CCC21C'
p966
aS'CC(=O)C1CCC2C1(CCC3C2CCC4C3(CCC(=O)C4)C)C'
p967
aS'CC(CO)CCC(O)C(C)C1CCC2C3CC=C4CC(O)CCC4(C)C3CCC12C'
p968
aS'[H]C([H])([H])C([H])(CCCC(C)C1CCC2C3CC=C4CC(O)CCC4(C)C3CCC12C)C([H])([H])[H]'
p969
aS'CC(C)CCC(O)C(C)(O)C1CCC2(O)C3=CC(=O)C4CC(OC5OC(CO)C(O)C(O)C5O)C(O)CC4(C)C3CCC12C'
p970
aS'CCCCCCCCCCCCCCCCCCCCCC(=O)OCC1OC(OC2CCC3(C)C(=CCC4C5CCC(C(C)CCCC(C)C)C5(C)CCC43)C2)C(O)C(O)C1O'
p971
aS'C=C(C)CC(O)CC(C)C1CCC2C3C(O)CC4CC(O)CCC4(C)C3CC(O)C12C'
p972
aS'[I-].CC(C)CCCC(C)C1CCC2C3CC=C4CC(C(=O)NCC[N+](C)(C)C)CCC4(C)C3CCC12C'
p973
aS'CC(C)(C#N)c1cc(Cn2cncn2)cc(C(C)(C)C#N)c1'
p974
aS'CC(C)CCCC(C)C1CCC2C3CC=C4CC(=NNC(N)=O)CCC4(C)C3CCC12C'
p975
aS'COc1ccc(C(=O)OC2C(O)COC(OC3C(OC(C)=O)C(OC4CC5C6CC=C7CC(OC8OC(COC9OC(CO)C(OC%10OC(CO)C(O)C(O)C%10O)C(O)C9O)C(O)C(O)C8O)CCC7(C)C6CCC5(C)C4(O)C(C)C(=O)CCC(C)C)OCC3O)C2O)cc1OC'
p976
aS'CC(=O)C1CCC2C1(CCC3C2CC=C4C3(CCC(C4)O)C)C'
p977
aS'CC(C)CCCC(C)C1CCC2C3CCC4Cc5cc6c(N)cccc6cc5CC4(C)C3CCC12C'
p978
aS'CC(C)CCCC(C)C1CCC(C2=CC(O)C3CC(O)CCC3(C)C2=O)C1(C)CCO'
p979
aS'CC1C2CCC3=C(C2(CCC1=O)C)CCC4(C3CCC4C(C)CCC=C(C)C)C'
p980
aS'Cc1ccc2nc3c(nc2c1)CC1(C)C(CCC2C4CCC(C(C)CCCC(C)C)C4(C)CCC21)C3'
p981
aS'CCC12C3=CCC4CC(=O)CCC4(C)C3CCC1(C)C(C(C)CCCC(C)C)CC2O'
p982
aS'Cc1ccnc2c1CC1(C)C(CCC3C4CCC(C(C)CCCC(C)C)C4(C)CCC31)C2'
p983
aS'CC(C)CCCC(C)C1CCC2C3CC=C4CC(OC(=O)c5cccnc5)CCC4(C)C3CCC12C'
p984
aS'CC(C)CCCC(C)C1CCC2C3=CC(O)C4(O)CC(O)CCC4(C)C34OC4CC21C'
p985
aS'C=C(CCC(C)C1CCC2C3CC=C4CC(OS(=O)(=O)O)CCC4(C)C3CCC12C)C(C)C'
p986
aS'CC(C)CCCC(C)C1CCC2(C=O)C3=CCC4CC(O)CCC4(C)C3CCC12C'
p987
aS'CC(C)C(=O)CCC(C)C1CCC2C3CC=C4CC(O[Si](C)(C)C)CCC4(C)C3CCC12C'
p988
aS'CC(=O)OC1CC2C3CC=C4CC(OC(C)=O)CCC4(C)C3CCC2(C)C1C(C)CCCC(C)C'
p989
aS'COc1ccc(C(=O)OC2C(O)C(O)COC2OC2C(OC(C)=O)C(OC3CC4C5CC=C6CC(OC7OC(COC8OC(CO)C(OC9OC(CO)C(O)C(O)C9O)C(O)C8O)C(O)C(O)C7O)CCC6(C)C5CCC4(C)C3(O)C(C)C(=O)CCC(C)C)OCC2O)cc1OC'
p990
aS'CCCCCC=CCC=CCCCCCCCCCC(=O)OCC1OC(OC2CCC3(C)C(=CCC4C5CCC(C(C)CCCC(C)C)C5(C)CCC43)C2)C(O)C(O)C1O'
p991
aS'C=C(C)CCCC(C)C1CCC2C3C(O)CC4CC(O)CCC4(C)C3CC(O)C12C'
p992
aS'CC(CO)CCC(O)C(C)(O)C1CCC2(O)C3=CC(=O)C4CC(O)C(O)CC4(C)C3CCC12C'
p993
aS'CC1CC2C3CCC4=CC(=O)C=CC4(C)C3(F)C(O)CC2(C)C1(O)C(=O)CO'
p994
aS'CC(C)CCCC(C)C1CCC2C3CC=C4CC(OC(=O)CI)CCC4(C)C3CCC12C'
p995
aS'CCCCCCCCCCCC(=O)SC1CCC2(C)C(=CCC3C4CCC(C(C)CCCC(C)C)C4(C)CCC32)C1'
p996
aS'CC(C)C(C)CC(C(C)C1CCC2C1(CCC3C2CCC4=CC(=O)CCC34C)C)O'
p997
aS'CC(O)(CCCCOC(=O)CBr)CCC(O)C(C)(O)C1CCC2(O)C3=CC(=O)C4CC(O)C(O)CC4(C)C3CCC12C'
p998
aS'CC(C)C(C)C(C(C(C)C1CCC2C1(CCC3C2COC(=O)C4C3(CC(C(C4)O)O)C)C)O)O'
p999
aS'CC(C)CCCC(C)C1CCC2C3CC=C4CC(OC5OC(CO)C(O)C(O)C5O)CCC4(C)C3CCC12C'
p1000
aS'CC(=O)OC1CCC2(C3SCCS3)C(=CCC3C4CCC(C(C)CCCC(C)C)C4(C)CCC32)C1'
p1001
aS'CC(CCCC(C)C1CCC2C1(CCC3C2CC=C4C3(CCC(C4)O)C)C)CO'
p1002
aS'CC(CCCC(C)C1CCC2C1(CCC3C2C(C=C4C3(CCC(C4)O)C)O)C)CO'
p1003
aS'CC1=CCC2CCC3C4CCC(C(C)CCCC(C)C)C4(C)CCC3C2(C)C1'
p1004
aS'CC(=O)OC1CC2C(=O)C=C3C(CCC4(C)C(C(C)C(O)CCC(C)(C)O)CCC34O)C2(C)CC1OP(=O)(O)O'
p1005
aS'CC=C(CCC(C)C1CCC2C1(CCC3C2=CC=C4C3(CCC(C4)O)C)C)C(C)C'
p1006
aS'CC12CCC(=O)C=C1CCC3C2CCC4(C3CCC4=O)C'
p1007
aS'CC(C)CCCC(C)C1CCC2C1(C)CCC1C3(C)CCC(O)CC34C=CC21OO4'
p1008
aS'CCCCCCCCCCCCCCCCCCCCCCOC(=O)CCC(NC(=O)CCCCCCCCCCC)C(=O)OC1CCC2(C)C(=CCC3C4CCC(C(C)CCCC(C)C)C4(C)CCC32)C1'
p1009
aS'COc1ccc(C(=O)OC2C(O)C(O)COC2OC2C(OC(C)=O)C(OC3CC4C5CC=C6CC(OC7OC(COC8OC(CO)C(O)C(O)C8O)C(O)C(O)C7O)CCC6(C)C5CCC4(C)C3(O)C(C)C(=O)CCC(C)C)OCC2O)cc1OC'
p1010
aS'C#CC1(O)CCC2C3CCC4=CC(=O)CCC4C3CCC21CCC'
p1011
aS'CC=C(CCC(C)C1CCC2C3=CCC4C(C)C(O)CCC4(C)C3CCC21C)C(C)C'
p1012
aS'CC(=O)OC1CCC2(C)C(=CCC3C4CC(=O)C(C(C)C(=O)CCC(C)CO)C4(C)CCC32)C1'
p1013
aS'CC(=O)OC1CCC2(C)C(CCC3=C4CCC(C(C)CCCC(C)C)C4(C)CCC32)C1'
p1014
aS'Cc1cccc(OC(=O)OC2CCC3(C)C(=CCC4C5CCC(C(C)CCCC(C)C)C5(C)CCC43)C2)c1'
p1015
aS'CC(C)CCCC(C)C1CCC2C3CC=C4CC(=NNC(=O)c5ccncc5)CCC4(C)C3CCC12C'
p1016
aS'CC(C)CCCC(C)C1CCC2C3CC=C4CC(OP(O)(=[OH+])OCC[N+](C)(C)C)CCC4(C)C3CCC12C'
p1017
aS'Cc1ccccc1OC(=O)OC1CCC2(C)C(=CCC3C4CCC(C(C)CCCC(C)C)C4(C)CCC32)C1'
p1018
aS'Cc1cc2nc3c(nc2cc1C)CC1(C)C(CCC2C4CCC(C(C)CCCC(C)C)C4(C)CCC21)C3'
p1019
aS'COC(=O)C1=NNC(C(=O)OC)=C2CC3(C)C(CCC4C5CCC(C(C)CCCC(C)C)C5(C)CCC43)CC12'
p1020
aS'CC(C)C(C)C=CC(C)C1CCC2C3CCC4C(C)(O)C(O)CCC4(C)C3CCC12C'
p1021
aS'CC=C(CCC(C)C1CCC2C3CC=C4CC(OC5OC(CO)C(O)C(O)C5O)CCC4(C)C3CCC12C)C(C)C'
p1022
aS'COc1cc(C(=O)OC2C(O)C(O)COC2OC2C(O)COC(OC3CC4C5CC=C6CC(OC7OC(COC8OC(CO)C(OC9OC(CO)C(O)C(O)C9O)C(O)C8O)C(O)C(O)C7O)CCC6(C)C5CCC4(C)C3(O)C(C)C(=O)CCC(C)C)C2OC(C)=O)cc(OC)c1OC'
p1023
aS'CC(=O)OC1CCC2(C)C(=CCC3C4CCC(C(C)=CCCC(C)C)C4(C)CCC32)C1'
p1024
aS'C=C(CCC(C)C1CCC2(C)C3=C(CCC12C)C1(C)CCC(O)C(C)C1CC3)C(C)C'
p1025
aS'[Br-].CC(=O)OC1C([N+]2(C)CCCCC2)CC2C3CCC4CC(OC(C)=O)C([N+]5(C)CCCCC5)CC4(C)C3CCC12C'
p1026
aS'COc1ccc(C(=O)OC2C(O)C(O)COC2OC2C(O)COC(OC3CC4C5CC=C6CC(OC7OC(CO)C(O)C(O)C7O)CCC6(C)C5CCC4(C)C3(O)C(C)C(=O)CCC(C)C)C2OC(C)=O)cc1OC'
p1027
aS'CC(C)CCCC(C)C1CCC2=C3CCC4C(C)C(O)CCC4(C)C3CCC21C'
p1028
aS'CCCCCCCCCCCCCC(=O)OC1CCC2(C)C(=CCC3C4CCC(C(C)CCCC(C)C)C4(C)CCC32)C1'
p1029
aS'CC(=O)C1(OC(=O)c2ccc(Br)cc2)CCC2C3CCC4=CC(=O)CCC4(C)C3CCC21C'
p1030
aS'CC(C)C(C)C=CC(C)C1CCC2C1(CCCC2=CC=C3CC(CCC3=C)O)C'
p1031
aS'COC1CCC2(CI)C(=CCC3C4CCC(C(C)CCCC(C)C)C4(C)CCC32)C1'
p1032
aS'[Na+].CC(C)CCCC(C)C1CCC2C3CC=C4CC(OC(=O)Nc5cc(S(=O)(=O)O)cc6cc(S(=O)(=O)[O-])cc(O)c65)CCC4(C)C3CCC12C'
p1033
aS'CC(=O)OC(C)(C)CCC(O)C(C)(O)C1CCC2(O)C3=CC(=O)C4CC(O)C(O)CC4(C)C3CCC12C'
p1034
aS'CC(C)C(=C)CCC(C)C1CCC2C1(CCC3C2=CCC4C3(CCC(C4)O)C)C'
p1035
aS'CC(C)CCCC(C)C1CCC2C3CCC4c5nc(Cl)ncc5CCC4(C)C3CCC12C'
p1036
aS'CC(C)=CCCC(C)C1CCC2C3=C(CCC21C)C1(C)CCC(O)CC1CC3'
p1037
aS'CC(=O)NC1C(C(O)C(O)CO)OC(OC2CCC3(C)C(=CCC4C5CCC(C(C)CCCC(C)C)C5(C)CCC43)C2)(C(=O)O)CC1O'
p1038
aS'[H]C([H])([H])C([H])(CCCC(C)C1CCC2C3CC=C4CC(=O)CCC4(C)C3CCC12C)C([H])([H])[H]'
p1039
aS'CC(=O)OCC1OC(OC2CCC3(C)C(=CCC4C5CCC(C(C)CCCC(C)C)C5(C)CCC43)C2)C(O)C(O)C1O'
p1040
aS'CC(CCCC(F)(C(F)(F)F)C(F)(F)F)C1CCC2C3CC=C4CC(O)CCC4(C)C3CCC12C'
p1041
aS'CC(C)C(C)CC(C(C)C1CCC2C1(CCC3C2CCC4C3(CCC(=O)C4)C)C)O'
p1042
aS'CC(C)CCCC(C)C1CCC2C3CCC4CC(N5CCCC5)=CCC4(C)C3CCC12C'
p1043
aS'[Na+].[Na+].[Na+].CC(C)C(CCC(C)C1CCC2C3CC(OC4OC(C)C(OS(=O)(=O)[O-])C(O)C4O)C4CC(OS(=O)(=O)[O-])CCC4(C)C3=CCC12C)OS(=O)(=O)[O-]'
p1044
aS'CCC(C)(CCC(C)C1CCC2C3CC=C4CC(O)CCC4(C)C3CCC12C)C(C)C'
p1045
aS'CC12CCC3C(C1CCC2=O)CC=C4C3(CCC(C4)O)C'
p1046
aS'CC(C1CCC2C3=CC(=O)C4CC(OC5OC(CO)C(O)C(O)C5OC5OC(C)C(O)C(O)C5O)CCC4(C)C3CCC12C)C1CCC(C)C(OC2OC(C)C(O)C(O)C2O)O1'
p1047
aS'CC(C)CCCC(C)C1CCC2C3CC=C4CC(OC(=O)Cc5ccccc5)CCC4(C)C3CCC12C'
p1048
aS'CC(=O)OC1CCC2(C)C(=CCC3C4CCC(C(C)CCCC(C)CO)C4(C)CCC32)C1'
p1049
aS'C=C(C(C)C)C(C)CC(C)C1CCC2C3CC=C4CC(O)CCC4(C)C3CCC21C'
p1050
aS'COC(=O)CCCCCOC1C=C2CC(OC(C)=O)CCC2(C)C2CCC3(C)C(C(C)CCCC(C)C)CCC3C12'
p1051
aS'CC(C)CCCC(C)C1CCC2=C3C(O)CC4CC(O)CCC4(C)C3CCC21C'
p1052
aS'CC(=O)C1(OC(=O)c2ccccc2)CCC2C3CCC4=CC(=O)CCC4(C)C3CCC21C'
p1053
aS'CC(C)CCCC(C)C1CCC2C3C(=O)C=C4CC(=O)CCC4(C)C3CCC12C'
p1054
aS'CC(CO)CCCC(C)C1CC(O)C2=C3CCC4CC(O)CCC4(C)C3CCC21C'
p1055
aS'CC1=C2CCC3C4CCC(C(C)CCCC(C)C)C4(C)CCC3C2(C)CCC1=O'
p1056
aS'CC(C)C(C)C1CC1C(C)C1CCC2C3=CCC4CC(O)CCC4(C)C3CCC21C'
p1057
aS'CCC=CCC=CCC=CCCCCCCCCCCCC(=O)OCC1OC(OC2CCC3(C)C(=CCC4C5CCC(C(C)CCCC(C)C)C5(C)CCC43)C2)C(O)C(O)C1O'
p1058
aS'CC(=CCCC(C)C1CCC2C3C(O)CC4CC(O)CCC4(C)C3CC(O)C12C)C(=O)SCCNC(=O)CCNC(=O)C(O)C(C)(C)COP(=O)([O-])OP(=O)([O-])OCC1OC(n2cnc3c2ncnc3N)C(O)C1OP(=O)([O-])[O-]'
p1059
aS'CC(C)(O)CCC(OP(=O)(O)O)C(C)(O)C1CCC2(O)C3=CC(=O)C4CC(O)CCC4(C)C3CCC12C'
p1060
aS'CC#CC1(O)CCC2C3CCC4=CC(=O)CCC4(Cc4ccc(C)cc4)C3=CCC21C'
p1061
aS'CC(C)CCCC(C)C1CCC2C3CC=C4CC(OCCOCCOCCOC5OC(CO)C(OC6OC(CO)C(O)C(O)C6O)C(O)C5O)CCC4(C)C3CCC21C'
p1062
aS'CC(C)CCC(=O)C(C)C1CCC2C3CC=C4CC(O)CCC4(C)C3CCC21C'
p1063
aS'CC(C)CCCC(C)C1CCC2C3CC(=O)C4Cc5c(c6ccccc6n5Cc5ccccc5)CC4(C)C3CCC12C'
p1064
aS'CC12CC(=O)C3C(CCC4CC(O)CCC43C)C1CCC2(O)C(=O)CO'
p1065
aS'CC(C)CCCC(C)C1CCC2C3CC=C4CC(OC5CCCCO5)CCC4(C)C3CCC12C'
p1066
aS'CC(=O)NC1C(O)C(O)C(CO)OC1OC1CC(C(C)CCCC(C)COC(C)=O)C2(C)CCC3C(CC=C4CC(O)CCC43C)C12'
p1067
aS'CC(C)CCCC(C)C1CCC2C3CC=C4CC(c5ccccc5)CCC4(C)C3CCC12C'
p1068
aS'CCC(CCC(C)C1CCC2C3=C(CCC21C)C1(C)CCC(O)CC1CC3)C(C)C'
p1069
aS'CC1=CCCC2(C)C1CCC1C3CCC(C(C)CCCC(C)C)C3(C)CCC12'
p1070
aS'CC(Cl)=C(C)C(=O)OC1CCC2(C)C(=CCC3C4CCC(C(C)CCCC(C)C)C4(C)CCC32)C1'
p1071
aS'CC(C)CCCC(C)C1(O)CCC2C3CCC4=CC(=O)CCC4(C)C3CCC21C'
p1072
aS'CC(C)CCCC(C)C1CC(N)C2=C3CCC4CC(O)CCC4(C)C3CCC21C'
p1073
aS'CC1C(CCC2(C1CC=C3C2CCC4(C3CCC4C(C)CCC(=C)C(C)C)C)C)O'
p1074
aS'CC(C)CCCC(C)C1CCC2C3CC=C4CC(C(=O)NCCN(C)C)CCC4(C)C3CCC12C'
p1075
aS'CCC(CCC(C)C1CCC2=C3CCC4C(C)C(O)CCC4(C)C3CCC21C)C(C)C'
p1076
aS'CC12CCC3C(CC=C4CC(O)CCC43C)C1CCC2(C)O'
p1077
aS'Cc1cn(C2CC(N=[N+]=[N-])C(COP(=O)(OCCC#N)OC3CCC4(C)C(=CCC5C6CCC(C(C)CCCC(C)C)C6(C)CCC54)C3)O2)c(=O)[nH]c1=O'
p1078
aS'CCC(CC(O)C(C)C1CCC2C3CCC4=CC(=O)CCC4(C)C3CCC12C)C(C)C'
p1079
aS'C=C(CCC(C)C1CCC2(C)C3CCC4C(C)C(O)CCC4(C)C3=CCC12C)C(C)C'
p1080
aS'CC(C)CCCC(C)C1CCC2C3CC=C4CC(OC5OC(C)C(O)C(O)C5O)CCC4(C)C3CCC21C'
p1081
aS'CC(C)=CCCC(C)C1CCC2C3CC=C4CC(OC5OC(CO)C(O)C(O)C5O)CCC4(C)C3CCC12C'
p1082
aS'CC(C)CCCC(C)C1CCC2C3CC=C4CC(OB5OC(C)CC(C)O5)CCC4(C)C3CCC12C'
p1083
aS'CC(C)CCCC(C)C1C(=O)CC2C3CC=C4CC(=O)CCC4(C)C3CCC21C'
p1084
aS'CC(C)CCCC(C)C1CCC2C3CC=C4CC(S)CCC4(C)C3CCC12C'
p1085
aS'CC(C)CCCC(C)C1CCC2C3CC=C4CC(OC(=O)c5nsc(Cl)c5Cl)CCC4(C)C3CCC12C'
p1086
aS'CC(C)CCCC(C)C1CCC2C3CC=C4CC(OC(=O)Nc5ccc(Cl)c(Cl)c5)CCC4(C)C3CCC12C'
p1087
aS'CC(C)CCCC(C)C1CCC2C3C(CCC21C)C1(C)CCC(O)CC1=CC3O'
p1088
aS'CC(C)CCCC(C)C1CCC2C3=CC(=O)C4CC(=O)CCC4(C)C3CCC21C'
p1089
aS'CC(C(CCC(C)(C)O)OP(=O)(O)O)C1CCC2(O)C3=CC(=O)C4CC(O)C(O)CC4(C)C3CCC12C'
p1090
aS'C=C(C)C(O)CCC(C)C1CCC2C3C(O)CC4CC(O)CCC4(C)C3CC(O)C12C'
p1091
aS'CC(C)C(C)CCC(C)C1CCC2C3CCC4=CC(=O)CCC4(C)C3CCC12C'
p1092
aS'COc1ccc(C2CCC3(C)C(=CCC4C5CCC(C(C)CCCC(C)C)C5(C)CCC43)C2)cc1'
p1093
aS'CC(C)C=CC(C)C1CCC2C3CC=C4CC(O)CCC4(C)C3CCC12C'
p1094
aS'CC(C)CCCC(C)C1CCC2C3C=CC4CCCCC4(C)C3CCC12C'
p1095
aS'CCCCCCCC(=O)OC1CCC2(C)C(=CCC3C4CCC(C(C)CCCC(C)C)C4(C)CCC32)C1'
p1096
aS'CC(C)CCCC(C)C1CCC2C3CCC4c5cc6ccccc6c([N+](=O)[O-])c5CCC4(C)C3CCC12C'
p1097
aS'C=C(CCC(C)C1CCC(C2CC=C3CC(O)CCC3(C)C2=O)C1(C)CCO)C(C)C'
p1098
aS'CC(C)CCCC(C)(O)C1(O)CCC2C3CC=C4CC(O)CCC4(C)C3CCC21C'
p1099
aS'C#CC1(O)CCC2C3CCC4=CC(=O)CCC4(C)C3CCC21C'
p1100
aS'CC(=O)C1(CCC2C1(CCC3C2CCC4=CC(=O)CCC34C)C)O'
p1101
aS'COC1CCC2(CO)C(=CCC3C4CCC(C(C)CCCC(C)C)C4(C)CCC32)C1'
p1102
aS'CCC(C)C=CC(C)C1CCC2C1(C)CCC1C3(C)CCC(O)CC34C=CC21OO4'
p1103
aS'CC(CO)CCCC(C)C1CCC2C3C(CCC12C)C1(C)CCC(=O)C=C1CC3O'
p1104
aS'CC(C)C(C)C=CC(C)C1CCC2C3=CC=C4CC(O)CCC4(C)C3CCC21C'
p1105
aS'CC(C(=O)CCC(C)CO)=C1C(=O)CC2C3CC=C4CC(O)CCC4(C)C3CCC12C'
p1106
aS'CC(C)CCCC(C)C1CCC2C3CC=C4CC(OC(=O)Cc5ccc(N(CCCl)CCCl)cc5)CCC4(C)C3CCC12C'
p1107
aS'CC(C)CCCC(C)C1CCC2(O)C3=CC(=O)C4CC(O)C(O)CC4(C)C3CCC12C'
p1108
aS'CC(C)CCCC(C)C1CCC2C3CCC4=CC(=NOCC(=O)O)CCC4(C)C3CCC21C'
p1109
aS'CC(C)CCCC(C)C1CCC2(CO)C3=CCC4CC(O)CCC4(C)C3CCC12C'
p1110
aS'CC(=O)OCC(C)CCCC(C)C1C(OC(C)=O)CC2C3CC=C4CC(OC(C)=O)CCC4(C)C3CCC12C'
p1111
aS'Cc1ccc2nc3c(nc2c1)C1CCC2C4CCC(C(C)CCCC(C)C)C4(C)CCC2C1(C)CC3'
p1112
aS'CC(C)CCCC(C)C1CCC2C3CC=C4CC(O[Si](C)(C)C)CCC4(C)C3CCC12C'
p1113
aS'CCCCCC=CCC=CCC=CCCCCCCC(=O)OC1CCC2(C)C(=CCC3C4CCC(C(C)CCCC(C)C)C4(C)CCC32)C1'
p1114
aS'CC(C)CCCC(C)C1CCC2C3CC=C4CC(OC(=O)CCCCCCCCCCCNC(=O)c5cc(I)c(N=[N+]=[N-])cc5O)CCC4(C)C3CCC21C'
p1115
aS'CC(C)=CCCC(C)C1CCC2C3CCC4CCCCC4(C)C3CC(=O)C12C'
p1116
aS'CC(C)CCCC(C)C1CCC2C1(C(CC3C2C(CC4=CC(=O)CCC34C)O)O)C'
p1117
aS'C=C(CCC(C)C1CCC2C3=CCC4CC(O)CCC4(C)C3CCC21C)C(C)(C)C'
p1118
aS'CC(C)CCCC(C)C1CC(=O)C2=C3CCC4CC(=O)CCC4(C)C3CCC21C'
p1119
aS'CCCCCCCCCOc1ccc(C(=O)OC2CCC3(C)C(=CCC4C5CCC(C(C)CCCC(C)C)C5(C)CCC43)C2)cc1'
p1120
aS'C=C(C)C(CCC(C)C1CCC2C3CC=C4CC(O)CCC4(C)C3CCC12C)C(C)(C)C'
p1121
aS'Cc1ccc(S(=O)(=O)OC2CC3=CCC4C5CCC(C(C)CCCC(C)C)C5(C)CCC4C3C(C)C2)cc1'
p1122
aS'CC(=O)OC1CCC2(C)C(=CCC3C4CCC(C(C)CCCC(C)C)C4(C)CCC32)C1C'
p1123
aS'C#CCC12CCC(=O)C=C1CCC1C3CCC(=O)C3(C)CCC12'
p1124
aS'CC(C)C(C)CC=CC(C)C1CCC2C3=CC(O)C4(O)CC(O)CCC4(C)C3CCC21C'
p1125
aS'CC(C)CCCC(C)C1CCC2C3CCC4=CC(=O)CCC4(C)C3CCC12C'
p1126
aS'CC(C)CCCC(C)C1CCC2C3CC(=O)C4=CC(=O)CCC4(C)C3CCC21C'
p1127
aS'CC(C)CCCC(C)C1CCC2C3=CC=C4CC(O)CC(O)C4(C)C3CCC12C'
p1128
aS'CC(=O)OC1CCC2C3CCC4=CC(=O)CCC4=C3C=CC12C'
p1129
aS'CC1CC(=O)CC2CCC3C4CCC(O)C4(C)CCC3C12C'
p1130
aS'COc1ccc2c(c1)[nH]c1c2CC2CCC3C4CCC(C(C)CCCC(C)C)C4(C)CCC3C2(C)C1'
p1131
aS'COc1cccc2c3c(n(C)c21)CC1(C)C(CCC2C4CCC(C(C)CCCC(C)C)C4(C)CCC21)C3'
p1132
aS'CC(C)CCCC(C)C1CCC2C3CCC4C=CCCC4(C)C3CCC12C'
p1133
aS'CCC(CCC(C)C1CCC2C3=CCC4CC(O)CCC4(C)C3CCC21C)=C(C)C'
p1134
aS'COc1ccc(C(=O)OC2C(O)C(O)COC2OC2C(O)COC(OC3CC4C5CC=C6CC(O)CCC6(C)C5CCC4(C)C3(O)C(C)C(=O)CCC(C)C)C2OC(C)=O)cc1'
p1135
aS'CC(=O)NC1C(O)CC(OC2CCC3(C)C(=CCC4C5CCC(C(C)CCCC(C)C)C5(C)CCC43)C2)(C(=O)O)OC1C(O)C(O)CO'
p1136
aS'CCC=C(CCC(C)C1CCC2C3CC=C4CC(O)CCC4(C)C3CCC12C)C(C)C'
p1137
aS'CC(C)CCCC(C)C1CCC2C3CC=C4CC(OCc5cccc(I)c5)CCC4(C)C3CCC12C'
p1138
aS'COc1cc(C(=O)OC2C(O)C(O)COC2OC2C(O)COC(OC3CC4C5CC=C6CC(OC7OC(CO)C(O)C(O)C7O)CCC6(C)C5CCC4(C)C3(O)C(C)C(=O)CCC(C)C)C2OC(C)=O)cc(OC)c1OC'
p1139
aS'CCC(CCC(C)C1CC=C2C3CCC4CC(O)CCC4(C)C3CCC21C)C(C)C'
p1140
aS'CC(=O)OC1CCC2(C)C(C1)CC(OS(C)(=O)=O)C1C3CCC(C(C)CCCC(C)C)C3(C)CCC12C#N'
p1141
aS'CC=C(CCC(C)C1CCC2C3CC=C4CC(O)CCC4(C)C3CCC12C)C(C)C'
p1142
aS'CC(C)CCCC(C)C1CCC2C3=CCC4C(C)(C)C(O)CCC4(C)C3CCC21C'
p1143
aS'Cc1ccc(I)c(C)c1C(=O)OC1CCC2(C)C(=CCC3C4CCC(C(C)CCCC(C)C)C4(C)CCC32)C1'
p1144
aS'CC(C)CC1CC1C(C)C1CCC2C3CC=C4CC(O)CCC4(C)C3CCC12C'
p1145
aS'CC(C)C(CCC(C)C1CC(O)C2C1(C)CCC1C3(C)CCC(OC4OCC(O)C(O)C4O)CC3C(O)CC21O)OC1OCC(O)C(O)C1O'
p1146
aS'CCC(C(=O)CC(C)(O)C1CCC2C3CC(O)C4CC(O)CCC4(C)C3=CCC21C)C(C)C'
p1147
aS'CCCCCCOC1CCC2(C)C(=CCC3C4CCC(C(C)CCCC(C)C)C4(C)CCC32)C1'
p1148
aS'CC12CCC3C(CCC4=CCCCC43C)C1CCC2O'
p1149
aS'CC(C)C(C)CCC(C)C1CC=C2C3CCC4CC(OC(=O)c5ccccc5)CCC4(C)C3CCC21C'
p1150
aS'CC(C)CCCC(C)C1CCC2C3CC=C4CC(SCC5CC[N+]6=C(NC(CSCC(=O)NCC(=O)NC(C)C(=O)NC(C(=O)NC(CC(C)C)C(=O)NC(CC(N)=O)C(=O)NC(Cc7ccccc7)C(=O)OCc7ccccc7)C(C)OCc7ccccc7)CC6)N5)CCC4(C)C3CCC12C'
p1151
aS'CC(C)CCCC(C)C1CCC2C3CC=C4CC(OCCC(C)C)CCC4(C)C3CCC12C'
p1152
aS'CC(C)CCC(N)C(C)C1CCC2C3CC=C4CC(O)CCC4(C)C3CCC12C'
p1153
aS'CC(C)CCCC(C)C1CCC2C3CC=C4CC(OC(=O)OC5CCC6(C)C(=CCC7C8CCC(C(C)CCCC(C)C)C8(C)CCC76)C5)CCC4(C)C3CCC12C'
p1154
aS'CC(C)CCCC(C)C1CCC2C3CC=C4CC(OC(=O)C=Cc5ccccc5)CCC4(C)C3CCC12C'
p1155
aS'CC(C)CCCC(C)C1CCC2C1(CCC3C2C(CC4=CC(=O)CCC34C)O)C'
p1156
aS'CC(C)CCCC(C)C1CCC2C3C(CCC12C)C1(C)CCC(O)CC1=CC3O'
p1157
aS'CC(=O)OC1CCC2(CO)C(=CCC3C4CCC(C(C)CCCC(C)C)C4(C)CCC32)C1'
p1158
aS'CC(C)CCCC(C)C1C=CC2C3CCC4C(CO)CCC4(C)C3CCC12C'
p1159
aS'CC(C)CCCC(C)C1CCC2C3C(O[Si](C)(C)C)C=C4CC(O[Si](C)(C)C)CCC4(C)C3CCC12C'
p1160
aS'[I-].CC(C)CCCC(C)C1CCC2C3CC=C4CC(C(=O)NCC[N+](C)(C)C)CCC4(C)C3CCC21C'
p1161
aS'CC12CCC3c4ccc(O)cc4CCC3C1CCC2O'
p1162
aS'CC(C)CCCC(C)C1CCC2C3C(OO)C=C4CC(O)CCC4(C)C3CCC12C'
p1163
aS'CC(C)CCCC(C)C1CCC2C3CC=C4CC(OC5OC(C(=O)O)C(O)C(O)C5O)CCC4(C)C3CCC12C'
p1164
aS'CC12CCC3C(CCC4CC(O)CCC43C)C1CCC2(O)C(=O)CO'
p1165
aS'CCC(CCC(C)C1CCC2C1(CCC3C2CC=C4C3(CCC(C4)O)C)C)C(C)C'
p1166
aS'COc1cc(C(=O)OC2C(O)C(O)COC2OC2C(OC(C)=O)C(OC3CC4C5CC=C6CC(OC7OC(CO)C(O)C(O)C7O)CCC6(C)C5CCC4(C)C3(O)C(C)C(=O)CCC(C)C)OCC2O)cc(OC)c1OC'
p1167
aS'CC(C)CCCC(C)C1CCC2C3C(OCCCCCC(=O)NCC(=O)Nc4ccc(C(=O)c5ccc(NC(=O)COCCOCCN=[N+]=[N-])cc5)cc4)C=C4CC(O)CCC4(C)C3CCC12C'
p1168
aS'CC(C)CCCC(C)C1CCC2C3CCC4=CC(O)CCC4(C)C3CCC12C'
p1169
aS'C=C(C)CCCC(C)C1CCC2C3C(O)CC4CC(O)CCC4(C)C3CCC12C'
p1170
aS'CC(C1CCC2C1(CCC3C2CCC4C3(CCC(=O)C4)C)C)O'
p1171
aS'CC(C)C(C)C=CC(C)C1CCC2C(=CC=C3CC(O)CCC3C)CCCC21C'
p1172
aS'CC(=CCCC(C)C1CCC2C3CC=C4CC(O)CCC4(C)C3CCC12C)CO'
p1173
aS'CCOc1ccc(Oc2c(C)oc3cc(OCC(=O)OC4CCC5(C)C(=CCC6C7CCC(C(C)CCCC(C)C)C7(C)CCC65)C4)ccc3c2=O)cc1'
p1174
aS'CC12CCCC1C1CCc3cc(OS(=O)(=O)[O-])ccc3C1CC2'
p1175
aS'CC(C)CCCC(C)C1CCC2C3CC=C4CC(OC(=O)F)CCC4(C)C3CCC12C'
p1176
aS'CC12CCC3C(CCC4=C(O)C(=O)CCC43C)C1CCC2=O'
p1177
aS'COc1ccc(C(=O)OC2C(O)C(O)COC2OC2C(OC(C)=O)C(OC3CC4C5CC=C6CC(O)CCC6(C)C5CCC4(C)C3(O)C(C)C(=O)CCC(C)C)OCC2O)cc1'
p1178
aS'[Na].CC(C)CCCC(C)C1CCC2C3CC(OS(=O)(=O)O)C4CC(O)CCC4(C)C3CCC12C'
p1179
aS'CC(=O)OCC12CCC3C(CC=C4CC(O)C(OC(C)=O)CC43C)C1CC(OC(C)=O)C2C(C)CCCC(C)C'
p1180
aS'CC(=O)OC1CCC2(C)C3=C(CCC2C1)C1(C)CCC(C(C)CCCC(C)C)C1(C)CC3'
p1181
aS'CC(C)CCCC(C)C1CCC2C3=C(CCC21C)C1(C)CCC(O)CC1CC3'
p1182
aS'CCCCCC=CC=CC(CC=CCC=CCCCC(=O)OC1CCC2(C)C(=CCC3C4CCC(C(C)CCCC(C)C)C4(C)CCC32)C1)OO'
p1183
aS'CC(C)CCCC(C)C1CCC2C3CC=C4CC(OP(=O)(O)O)CCC4(C)C3CCC12C'
p1184
aS'CC(C)CCCC(C)C1CCC2C3CCC4Cc5c(ccc6ccccc65)CC4(C)C3CCC12C'
p1185
aS'CC(C)CCCC(C)C1CCC2C3CC=C4CC(OC(=O)CCCCCCCCCCBr)CCC4(C)C3CCC12C'
p1186
aS'CC1C2CCC3=C(C2(CCC1O)C)CCC4(C3(CCC4C(C)CCC(=C)C(C)C)C)C'
p1187
aS'CC12CCC(=O)CC1CCC3C2C(CC4(C3CCC4(C(=O)CO)O)C)O'
p1188
aS'CC(C(O)CCC(C)(C)O)C1CCC2(O)C3=CC(=O)C4CC(=O)C(O)CC4(C)C3CCC12C'
p1189
aS'CC(=CCCC(C)C)C1CCC2C3CC=C4CC(Oc5ccccc5)CCC4(C)C3CCC12C'
p1190
aS'CC12CCC3C(C1CCC2O)CC=C4C3(CCC(C4)O)C'
p1191
aS'CC(=CCCC(C)C1CCC2C3C(CC(O)C12C)C1(C)CCC(O)CC1CC3O)C(=O)SCCNC(=O)CCNC(=O)C(O)C(C)(C)COP(=O)(O)OP(=O)(O)OCC1OC(n2cnc3c2ncnc3N)C(O)C1OP(=O)(O)O'
p1192
aS'CC(C)CCCC(C)C1CCC(C2=CC3OC34CC(O)CCC4(C)C2=O)C1(C)CC=O'
p1193
aS'CC(CCC(=O)C(C)C(=O)SCCNC(=O)CCNC(=O)C(O)C(C)(C)COP(=O)([O-])OP(=O)([O-])OCC1OC(n2cnc3c2ncnc3N)C(O)C1OP(=O)([O-])[O-])C1CCC2C3C(O)CC4CC(O)CCC4(C)C3CC(O)C12C'
p1194
aS'CC(C)CCCC(C)C1CCC2C3C(O)CC4=CC(O)CCC4(C)C3CCC12C'
p1195
aS'CC(C)CCCC(C)C1CCC2C3CC=C4CC(OC(=O)CCc5ccccc5)CCC4(C)C3CCC12C'
p1196
aS'CCCCCCC=CCCCCCCCC(=O)OC1CCC2(C)C(=CCC3C4CCC(C(C)CCCC(C)C)C4(C)CCC32)C1'
p1197
aS'CC(CCCC(C)C1CCC2C3CCC4=CC(=O)CCC4(C)C3CCC12C)C(=O)O'
p1198
aS'CC(C)CCCC(C)C1CCC2C3CC=C4C(C)(C)C(=O)C(=[N+]=N)CC4(C)C3CCC12C'
p1199
aS'CCCCCCCCCCCCOC(=O)OC1CCC2(C)C(=CCC3C4CCC(C(C)CCCC(C)C)C4(C)CCC32)C1'
p1200
aS'CC(C)CCCC(C)C1CCC2C3=CC4OC45CC(O)CCC5(C)C3(O)CCC21C'
p1201
aS'CC(C)C#CCC(C)C1CCC2C3CC=C4CC(O)CCC4(C)C3CCC12C'
p1202
aS'CC(C)CCCC(C)C1CCC2C3CC=C4CC(O[N+](=O)[O-])CCC4(C)C3CCC12C'
p1203
aS'COC(=O)C(C)CCCC(C)C1CCC2C3CCC4=CC(=O)CCC4(C)C3CCC12C'
p1204
aS'C=C(CC(O)C(C)C1CCC2C3CC=C4CC(O)CCC4(C)C3CCC12C)C(C)C'
p1205
aS'CC(C)CCCC(C)C1CCC2C3CC(OO)C4=CC(=O)CCC4(C)C3CCC12C'
p1206
aS'CC12CCCC1C1CCc3cc(OS(=O)(=O)O)ccc3C1CC2'
p1207
aS'CC(C)CCCC(C)C1CCC2C3CC=C4C(=O)C(F)CCC4(C)C3CCC12C'
p1208
aS'CC(CCC(O)C(C)(C)O)C1CCC2C3CC=C4CC(O)CCC4(C)C3CCC21C'
p1209
aS'CCCCCC=CCCCCCCCC(=O)OC1CCC2(C)C(=CCC3C4CCC(C(C)CCCC(C)C)C4(C)CCC32)C1'
p1210
aS'CC(C)CCCC(C)C1CCC2C3CC=C4CC(OS(=O)(=O)[O-])CCC4(C)C3CCC12C'
p1211
aS'CC(C)CCCC(C)C1CCC2C3CC=C4CC(OCCCCCCSC5OC(CN)C(O)C(O)C5O)CCC4(C)C3CCC12C'
p1212
aS'CC(C)CCCC(C)C1CCC2C3CC=C4CC(C(C(=O)O)C(=O)O)CCC4(C)C3CCC12C'
p1213
aS'CCCCCCCCC=CCCCCCCCCCCCC(=O)OC1CCC2(C)C(=CCC3C4CCC(C(C)CCCC(C)C)C4(C)CCC32)C1'
p1214
aS'[Na+].CC(C)CCCC(C)C1CCC2C3CC=C4CC(OC(=O)Nc5cc(S(=O)(=O)O)cc6cc(S(=O)(=O)[O-])cc(O)c65)CCC4(C)C3CCC21C'
p1215
aS'[Na+].CC(C)CC(=O)CC(C)(O)C1CCC2C3CC(OC4OC(C)C(O)C(OC5OCC(OC6OC(CO)C(O)C(O)C6OC6OC(C)C(OC7OC(CO)C(O)C(O)C7O)C(O)C6O)C(O)C5OC5OC(C)C(O)C(O)C5O)C4O)C4CC(OS(=O)(=O)[O-])CCC4(C)C3=CCC21C'
p1216
aS'CC(C)CCC(O)C(C)(O)C1CCC2(O)C3=CC(=O)C4CC(O)C(O)CC4(C)C3CCC12C'
p1217
aS'CC(C)CCCC(C)C1CCC2C3=CCC4C(C)C(O)CCC4(C)C3CCC12C'
p1218
aS'[Na+].CC(C=CC(C)C1CC(O)C2C1(C)CCC1C3(C)CCC(OC4OCC(O)C(O)C4O)CC3C(O)CC21O)C(C)COS(=O)(=O)[O-]'
p1219
aS'CC(CCCC(C)(C)O)C1CCC2C3CC=C4CC(O)CCC4(C)C3CCC21C'
p1220
aS'CC(C)CCC1OC1(C)C1CCC2C3CC=C4CC(O)CCC4(C)C3CCC21C'
p1221
aS'CC(=O)OC1CCC2(C)C(=C([N+](=O)[O-])CC3C4CCC(C(C)CCCC(C)C)C4(C)CCC32)C1'
p1222
aS'CCCCCC=CCC=CCCCCCCCC(=O)OCC1OC(OC2CCC3(C)C(=CCC4C5CCC(C(C)CCCC(C)C)C5(C)CCC43)C2)C(O)C(O)C1O'
p1223
aS'CCCCCC(=O)OCC1OC(OC2CCC3(C)C(=CCC4C5CCC(C(C)CCCC(C)C)C5(C)CCC43)C2)C(O)C(O)C1O'
p1224
aS'CC(CCCC(C)(C)O)C1CCC2C1(CCCC2=CC=C3CC(CCC3=C)O)C'
p1225
aS'CC(=O)OC1(C(C)=O)CCC2C3CCC4=CC(=O)CCC4(C)C3(F)C(O)CC21C'
p1226
aS'CC(C)CC=CC(C)C1C(=O)CC2C3CCC4CCCCC4(C)C3CCC21C'
p1227
aS'CC(C)(O)CCC(O)C(C)(O)C1CCC2(O)C3=CC(=O)C4(O)CC(O)C(O)CC4(C)C3CCC12C'
p1228
aS'CC12CCC(CC1=CCC3C2CCC4(C3CC(C4=O)O)C)O'
p1229
aS'CCCCCCC1CC2C3CCC(=O)C3(C)CCC2C2(C)C=CC(=O)C=C12'
p1230
aS'CCCCCCCCCCCCCCCCCCCC(=O)OC1CCC2(C)C(=CCC3C4CCC(C(C)CCCC(C)C)C4(C)CCC32)C1'
p1231
aS'CC(C)CCCC(C)C1CC2C3CCC4Cc5[nH]c6ccc(Cl)cc6c5CC4(C)C3CCC2(C)C1'
p1232
aS'CC(C)CCCC(C)C1CCC2C3CC(O)C4=CC(O)CCC4(C)C3CCC12C'
p1233
aS'CC(C)CCCC(C)C1CCC2C3C(=O)C=C4CC(F)CCC4(C)C3CCC12C'
p1234
aS'CC(=O)OC1CC2=CCC3C4CCC(C(C)CCCC(C)C)C4(C)CCC3C2(C)C(OC(C)=O)C1'
p1235
aS'CC(C)CCCC(C)C1CCC2C3CC=C4CC(OC(=O)OC(C)C)CCC4(C)C3CCC12C'
p1236
aS'CC12CCC(=O)C=C1CCC3C2C(CC4(C3CCC4C(=O)CO)C)O'
p1237
aS'CC(C)CCCC(C)C1CCC2C3C=CC4=CC(=O)CCC4(C)C3CCC12C'
p1238
aS'CCCCCC=CCC=CCCCCCC(=O)OCC1OC(OC2CCC3(C)C(=CCC4C5CCC(C(C)CCCC(C)C)C5(C)CCC43)C2)C(O)C(O)C1O'
p1239
aS'CC(=O)OC1C=C2C3CCC(C(C)CCCC(C)C)C3(C)CC3OC23C2(CO)CCC(O)CC12O'
p1240
aS'CC(C)CCCC(C)C1CCC2C3CCC4c5[nH]c6ccc(OCc7ccccc7)cc6c5CCC4(C)C3CCC12C'
p1241
aS'CCCCCCCCC=CCCCCCCCC(=O)OC1CCC2(C)C3CCC4(C)C(=C3CCC2C1)C(=O)CC4C(C)CCCC(C)C'
p1242
aS'CC(C)CCCC(C)C1CCC2C3CC=C4CC5(CCC4(C)C3CCC12C)OCCO5'
p1243
aS'CC(C)CCCC(C)C1CCC2(O)C3=CC(=O)C4(O)CC(O)CCC4(C)C3CCC12C'
p1244
aS'CC(C)=CCCC(C)C1CCC2C3C(O)CC4CC(O)CCC4(C)C3CCC12C'
p1245
aS'CC(C)CCCC(C)(C)C1CCC2C3CC=C4CC(O)CCC4(C)C3CCC12C'
p1246
aS'CC(C)CCCC(C)C1CCC2C3CCC45C=CC(O)(CCC4(C)C3CCC12C)O5'
p1247
aS'CCCCCCCCCCCCCCCC(=O)OC1CCC2(C)C(=CCC3C4CCC(C(C)CCCC(C)C)C4(C)CCC32)C1'
p1248
aS'CC(C)CCCC(C)C1CCC2C1(CCCC2=CC=C3CC(CCC3=C)O)C'
p1249
aS'[Br-].CC(=O)OC1C([N+]2(C)CCCCC2)CC2C3CCC4CC(OC(C)=O)C([N+]5(C)CCCCC5)CC4(C)C3CCC21C'
p1250
aS'C=C(C)C(CC)C(CC)CCC(C)C1CCC2C3=CCC4CC(O)CCC4(C)C3CCC21C'
p1251
aS'CC(C)CCCC(C)C1CCC2C3=CCC4C(C)(CCC(O)C4(C)C=O)C3CCC21C'
p1252
aS'CC(C)CCCC(C)C1CCC2=C3C(O)C4OC45CC(O)CCC5(C)C3CCC21C'
p1253
aS'CC12CCCC1C1CCC3CC(=O)C=CC3(C)C1CC2'
p1254
aS'N#Cc1ccc(C(c2ccc(C#N)cc2)n2cncn2)cc1'
p1255
aS'COC1CCCC2(CO)C1=CCC1C3CCC(=O)C3(C)CCC12'
p1256
aS'CC(=O)OC1CCC2(C)C(=CC=C3C4CCC(C(C)CCCC(C)C)C4(C)CCC32)C1'
p1257
aS'CC(CCCC(C)C1CCC2C3C(CCC12C)C1(C)CCC(=O)C=C1CC3O)C(=O)O'
p1258
aS'CC(C)CCCC(C)C1CCC2C3=CCC4C(C)(CO)C(O)CCC4(C)C3CCC21C'
p1259
aS'CC(=O)OC1CCCC2(C)C1=CCC1C3CCC(=O)C3(C)CCC12'
p1260
aS'CC(=O)OC1C=C2C(=O)CC3C4CCC(C(C)CCCC(C)C)C4(C)CCC3C2(C)CC1'
p1261
aS'CC(C)CCCC(C)C1CCC2C3CC=C4CC(OC(=O)c5ccc(Cl)cc5)CCC4(C)C3CCC12C'
p1262
aS'CC(CO)CCCC(C)C1CCC2C3CCC4=CC(=O)CCC4(C)C3CCC12C'
p1263
aS'CC12CCC(=O)CC1CCC3C2C(=O)CC4(C3CCC4(C(=O)CO)O)C'
p1264
aS'CC(C)CCCC(C)C1CCC2C3C=CC4(OO)CC(O)CCC4(C)C3CCC12C'
p1265
aS'C=C(CCC(C)C1CCC2C3=CCC4C(C)C(O)CCC4(C)C3CCC21C)C(C)C'
p1266
aS'CC(=O)OC1C([N+]2(C)CCCCC2)CC2C3CCC4CC(OC(C)=O)C([N+]5(C)CCCCC5)CC4(C)C3CCC12C'
p1267
aS'C=C(CCC(C)C1CCC2C3=CCC4CC(O)CCC4(C)C3CCC21C)C(C)C'
p1268
aS'CC12CCC3c4ccc(O)cc4CC=C3C1CCC2=O'
p1269
aS'[Gd].CC12CCC3C(CCC4=CC(=O)CCC43C)C1CCC2C(=O)COCCCCCCNC(=S)Nc1ccc(CC2CN(CC(=O)O)CCN(CC(=O)O)CCN(CC(=O)O)CCN2CC(=O)O)cc1'
p1270
aS'CC(=O)OC1CCC2(C)C(=CCC3C4CCC(C(C)CCC(=O)C(C)C)C4(C)CCC32)C1'
p1271
aS'CC12CCC(=O)C=C1CCC3C2CCC4(C3CCC(=O)O4)C'
p1272
aS'CC=CC(=O)OC1CCC2(C)C(=CCC3C4CCC(C(C)CCCC(C)C)C4(C)CCC32)C1'
p1273
aS'CC(CCCC(C)CO)C1C(O)C(O)C2C1(C)CCC1C3(C)CCC(OC4OCC(O)C(O)C4O)C(O)C3=CCC21O'
p1274
aS'CC(=O)OC1CC2C3CC=C4CC(OC(C)=O)CCC4(C)C3CCC2(C)C1(O)C(C)C(=O)CCC(C)CO'
p1275
aS'CC(CCCC(C)C1CCC2C1(CCC3C2C(CC4=CC(=O)CCC34C)O)C)CO'
p1276
aS'C=C(CCC(C)C1CCC2C3=C(CCC21C)C1(C)CCC(O)CC1CC3)C(C)C'
p1277
aS'CC(C)CCCC(C)C1CCC2C3CC=C4CC(OCCCCCCSC5OC(CO)C(O)C(O)C5O)CCC4(C)C3CCC12C'
p1278
aS'CC(C)CCCC(C)C1CCC2C1(CCC3C2CC=C4C3(CCC(C4)O)C)C'
p1279
aS'COC1C=C2C(OC(C)=O)CC3C4CCC(C(C)CCCC(C)C)C4(C)CCC3C2(C)CC1'
p1280
aS'C=C(CCC(C)C1CCC2C3CC=C4CC(O)CCC4(CO)C3CCC12C)C(C)C'
p1281
aS'C=C(C)C(CC)CCC(C)C1C(O)CC2C3CCC4CC(O)CCC4(C)C3CC(O)C12C'
p1282
aS'COc1cccc2c3c(n(C(C)=O)c21)CC1(C)C(CCC2C4CCC(C(C)CCCC(C)C)C4(C)CCC21)C3'
p1283
aS'CC(C)CCCC(C)C1CCC2C3CCC4(O)C(=O)C=CCC4(C)C3CCC12C'
p1284
aS'C=C(C)COC(=O)OC1CCC2(C)C(=CCC3C4CCC(CCCCCC(C)C)C4(C)CCC32)C1'
p1285
aS'CC(C)CCCC(C)C1CCC2C3CC=C4CC(OC(=O)c5ccccc5C(=O)O)CCC4(C)C3CCC12C'
p1286
aS'CC(C)CCCC(C)C1CCC2C3CCC4CC=C(CO)CC4(C)C3CCC12C'
p1287
aS'CC(=O)OCC1OC(OC2CCC3(C)C(=CCC4C5CCC(C(C)CCCC(C)C)C5(C)CCC43)C2)C(OC(C)=O)C(OC(C)=O)C1OC(C)=O'
p1288
aS'CC(C)CCCC(C)C1CCC2C3=CCC4CC(O[Si](C)(C)C)CCC4(C)C3CCC21C'
p1289
aS'CC(C)CCCC(C)C1CCC2(CO)C3C=CC4CC(O)CCC4(C)C3CCC12C'
p1290
aS'CC(C)CCCC(C)C1CCC2C3CC=C4CC(OC(=O)Nc5ccc(S(=O)(=O)O)c6cccc(S(=O)(=O)O)c56)CCC4(C)C3CCC12C'
p1291
aS'CC(C)=CCCC(C)C1CCC2C3=CC=C4CC(O)CCC4(C)C3CCC21C'
p1292
aS'Cc1c(OCC(=O)OC2CCC3(C)C(=CCC4C5CCC(C(C)CCCC(C)C)C5(C)CCC43)C2)ccc2c3c(c(=O)oc12)CCC3'
p1293
aS'CC(C)CCCC(C)C1CCC2C3CCC4Cc5ccc6ccccc6c5CC4(C)C3CCC12C'
p1294
aS'CC(CCCC(C)(C)O)C1CCC2C3CC=C4CC(O)CC(O)C4(C)C3CCC12C'
p1295
aS'CC(C)CCCC(C)C1C(O)C=C2C3CCC4CC(O)CCC4(C)C3CCC21C'
p1296
aS'CCC1CC2C3CCC(=O)C3(C)CCC2C2(C)C=CC(=O)C=C12'
p1297
aS'CC=C(CCC(C)C1CCC2C3=CCC4CC(O)CCC4(C)C3CCC21C)C(C)C'
p1298
aS'Cc1ccc(S(=O)(=O)[O-])cc1.CC(C)CCCC(C)C1CCC2C3CC=C4CC(SC(=N)[NH3+])CCC4(C)C3CCC12C'
p1299
aS'COc1ccc2c(n1)CCC1(C)C2CCC2C3CCC(C(C)CCCC(C)C)C3(C)CCC21'
p1300
aS'CC(CCC(C(C)(C)O)O)C1CCC2C1(CCCC2=CC=C3CC(CC(C3=C)O)O)C'
p1301
aS'CC(C)CCCC(C)C1CCC2C3=CCC4C(C)(CCC(O)C4(C)C(=O)O)C3CCC12C'
p1302
aS'CC12CCC3C(CCC4CC(O)CCC43C)C1CCC2O'
p1303
aS'CC(C)CCCC(C)C1CCC2C3CC=C4CC(OC(=O)c5nsc(Cl)c5Cl)CCC4(C)C3CCC21C'
p1304
aS'CC(CCCC(C)(C)O)C1CCC2C3C(O)C=C4CC(O)CCC4(C)C3CCC12C'
p1305
aS'CC(C)CCCC(C)C1CCC2C3CC(OS(=O)(=O)[O-])C4CC(O)CCC4(C)C3CCC12C'
p1306
aS'CC(=O)OCCC1(C)C(C2=CC(O)C3CC(O)CCC3(C)C2=O)CCC1C(C)C=CC(C)C'
p1307
aS'CC(C)CCCC(=O)OC1CCC2(C)C(=CCC3C4CCC(C(C)CCCC(C)C)C4(C)CCC32)C1'
p1308
aS'[Na+].[Na+].C=C(C)CCCC(COS(=O)(=O)[O-])C1CCC2C3CCC4(O)C(O)C(OS(=O)(=O)[O-])CCC4(C)C3CCC21C'
p1309
aS'Cc1cccc2cc3c(cc12)CC1(C)C(CCC2C4CCC(C(C)CCCC(C)C)C4(C)CCC21)C3'
p1310
aS'CC(C)CCCC(C)C1CCC2(C)C3CCC4C(C)C(O)CCC4(C)C3=CCC12C'
p1311
aS'COCOC1CCC2(C)C3CCC4(C)C(C(C)C5OC5C(C)C(C)C)CCC4C34C=CC2(C1)n1c(=O)n(-c2ccccc2)c(=O)n14'
p1312
aS'CC(=O)OC1CCC2(C)C3=C(CCC2C1)C1CCC(C(C)CCCC(C)C)C1(C)CC3'
p1313
aS'Cc1c2ccccc2cc2c1CC1(C)C(CCC3C4CCC(C(C)CCCC(C)C)C4(C)CCC31)C2'
p1314
aS'CC(C)CCCC(C)C1CCC2C3CCC4Cc5nc6ccccc6nc5CC4(C)C3CCC12C'
p1315
aS'CC=C(CCC(C)C1CCC2C1(CCC3C2=CCC4C3(CCC(C4)O)C)C)C(C)C'
p1316
aS'CC(CCC=C(C)C)C1CCC2C1(CCC3C2CC=C4C3(CCC(C4)O)C)C'
p1317
aS'CC(C)CCCC(C)C1CCC2C3CC=C4CC(OCCCC(=O)O)CCC4(C)C3CCC12C'
p1318
aS'CC(C=CC1CC1C)C1CCC2C1(C)CCC1C3(C)CCC(O)CC34C=CC21OO4'
p1319
aS'CC(C)CCCC(C)C1C(O)CC2C3C=CC4CC(O)CCC4(C)C3CCC21C'
p1320
aS'CC12CCC3C(C1CCC2=O)CCC4=C3C=CC(=C4)O'
p1321
aS'Cc1c(OCC(=O)OC2CCC3(C)C(=CCC4C5CCC(C(C)CCCC(C)C)C5(C)CCC43)C2)ccc2c3ccccc3c(=O)oc12'
p1322
aS'CC(C)CCCC(C)C1CCC2(C)C3=C(CCC12C)C1(C)CCC(O)CC1C(O)C3'
p1323
aS'CC(CO)CCCC(C)C1C(O)CC2C3CC=C4CC(O)CCC4(C)C3CCC12C'
p1324
aS'COC1C(O)C(O)COC1OC1CCC2(C)C3CCC4(C)C(C(C)CCC(OC5OC(O)C(O)C5O)C(C)C)CC(O)C4C3(O)CC(O)C2C1O'
p1325
aS'CC(C)CC(=O)CC(C)C1CCC2C3CCC4CC(OC5OC(C(=O)O)C(O)C(O)C5OC5OC(CO)C(O)C(O)C5O)CCC4(C)C3CCC12C'
p1326
aS'CC(C)(C(=O)c1cccnc1)c1cccnc1'
p1327
aS'CC(C)C(C)C=CC(C)C1CCC2C3CCC4CC(O)CCC4(C)C3CCC12C'
p1328
aS'[H]C([H])([H])C(C(O)CCC(C)C1CCC2C3CC=C4CC(O)CCC4(C)C3CCC12C)C([H])([H])[H]'
p1329
aS'CC(C)CCCC(C)C1CCC2C3CCC4c5nc6cc(Cl)c(Cl)cc6nc5CCC4(C)C3CCC12C'
p1330
aS'CC(O)(C(O)CCC(C)(O)CO)C1CCC2(O)C3=CC(=O)C4CC(O)C(O)CC4(C)C3C(O)CC12C'
p1331
aS'CC(=O)OC1CCC2(C)C(=CCC3C4CC(=O)C(C(C)CCCC(C)CNC(=O)Cc5ccccc5)C4(C)CCC32)C1'
p1332
aS'CC(CO)C(C)C(C(C(C)C1CCC2C1(CCC3C2CC(=O)C4C3(CC(C(C4)O)O)C)C)O)O'
p1333
aS'CCC(CCC(C)C1CCC2C3CC=C4CC(OS(=O)(=O)O)CCC4(C)C3CCC12C)C(C)C'
p1334
aS'CC(=O)C1CCC2C3CC=C4CC(O)CCC4(C)C3CCC21C'
p1335
aS'CC1=C2CCC3C4CCC(C(C)CCCC(C)C)C4(C)CCC3C2(C)CCC1O'
p1336
aS'CC(C)CCCC(C)C1CC(O)C2C3CCC4CC(O)CCC4(C)C3CCC12C'
p1337
aS'CC(=O)OCCC1(C)C(C2=CC(O)C3CC(O)CCC3(C)C2=O)CCC1C(C)CCCC(C)C'
p1338
aS'CC(C)C(C)CC(C(C)C1CCC2C1(CCC3C2CC(=O)C4C3(CCC(C4)O)C)C)O'
p1339
aS'CC(O)(C1CCC(C)(C)O1)C1CCC2(O)C3=CC(=O)C4CC(O)C(O)CC4(C)C3CCC12C'
p1340
aS'CC(C)CCCC(C)C1CCC2=C3CCC4CC(O)C(C)(C)CC4(C)C3CCC21C'
p1341
aS'CCCCCCCCCCCCCCC(=O)OC1CCC2(C)C(=CCC3C4CCC(C(C)CCCC(C)C)C4(C)CCC32)C1'
p1342
aS'CC(=O)OCC(C)CCCC(C)C1CCC2C3CCC4=CC(=O)CCC4(C)C3CCC12C'
p1343
aS'CC(CCCC(F)(C(F)(F)F)C(F)(F)F)C1CC(=O)C2=C3CCC4CC(O)CCC4(C)C3CCC21C'
p1344
aS'CC(C)CCCC(C)C1CCC2C3=CC=C4CC(O)CC(O)C4(C)C3CCC21C'
p1345
aS'CC(C)CCCC(C)C1CCC2C3CC=C4CC(OS(C)(=O)=O)CCC4(C)C3CCC12C'
p1346
aS'CC(=O)OCC(C)CCC(=O)C(C)C1C(=O)CC2C3CC=C4CC(OC(C)=O)CCC4(C)C3CCC21C'
p1347
aS'C=C(CCC(C)C1CCC2C3CC=C4CC(O)CCC4(C)C3CCC12C)C(C)C'
p1348
aS'CC12CCC(CC1CCC3C2C(CC4(C3CCC4C(=O)CO)C=O)O)O'
p1349
aS'CCCCCCOc1ccc(C(=O)OC2CCC3(C)C(=CCC4C5CCC(C(C)CCCC(C)C)C5(C)CCC43)C2)cc1'
p1350
aS'CC(C)CCCC(C)C1CCC2C3=CCC4C(C)(CCC(O)C4(C)C(=O)[O-])C3CCC21C'
p1351
aS'CC(C)CCCC(C)C1CCC2C3=CCC4CC(OC(=O)C(F)(F)F)CCC4(C)C3CCC21C'
p1352
aS'CC12C=CC3=C4CCC(=O)C=C4CCC3C1CCC2O'
p1353
aS'CC(C)CCCC(C)C1CCC2C3C(O)C=C4CC(=O)CCC4(C)C3CCC12C'
p1354
aS'CC(C)CCCC(C)C1CCC2C3CC(=O)C4Cc5[nH]c6ccc(Cl)cc6c5CC4(C)C3CCC12C'
p1355
aS'CC(C)CCCC(C)C1CCC2C3C(O)CC4=CC(=O)CCC4(C)C3CC(O)C12C'
p1356
aS'CC(CI)CCC(O)C(C)(O)C1CCC2(O)C3=CC(=O)C4CC(O)C(O)CC4(C)C3CCC12C'
p1357
aS'CC(C)CCCC(C)C1CCC2C3CC(O)C4CC(OS(=O)(=O)[O-])CCC4(C)C3CCC12C'
p1358
aS'COc1cc(C(=O)OC2C(O)C(O)COC2OC2C(OC(C)=O)C(OC3CC4C5CC=C6CC(OC7OC(COC8OC(CO)C(OC9OC(CO)C(O)C(O)C9O)C(O)C8O)C(O)C(O)C7O)CCC6(C)C5CCC4(C)C3(O)C(C)C(=O)CCC(C)C)OCC2O)cc(OC)c1OC'
p1359
aS'CC(C)CCCC(C)C1CCC2C3CC(=NO)C4Cc5[nH]c6ccccc6c5CC4(C)C3CCC12C'
p1360
aS'CC(C)C(=C)CCC(C)C1CCC2C1(CCC3=C2CCC4C3(CCC(C4)O)C)C'
p1361
aS'CC(C)CCCC(C)C1CCC2C3=CC(=O)C4CC(O)CCC4(C)C3CCC21C'
p1362
aS'CCC=CC=CC=CC=CCCCCCCCC(=O)OC1CCC2(C)C(=CCC3C4CCC(C(C)CCCC(C)C)C4(C)CCC32)C1'
p1363
aS'CC(C)CCCC(C)C1C(O)CC2C3C=CC4CC(O)CCC4(C)C3CCC12C'
p1364
aS'CC(=O)OC1CCC2(C)C(=CCC3C4CCC(C(C)CCCC(C)(C)O)C4(C)CCC32)C1'
p1365
aS'CC(=CCCC(C)C1CCC2C3C(CCC12C)C1(C)CCC(O)CC1CC3O)C(=O)SCCNC(=O)CCNC(=O)C(O)C(C)(C)COP(=O)(O)OP(=O)(O)OCC1OC(n2cnc3c2ncnc3N)C(O)C1OP(=O)(O)O'
p1366
aS'[Na+].[Na+].CC(C)CCCC(COS(=O)(=O)[O-])C1CCC2C3CC=C4C(O)C(OS(=O)(=O)[O-])C(O)CC4(C)C3CCC12C'
p1367
aS'CC(C)CCCC(C)(OO)C1CCC2C3CC=C4CC(O)CCC4(C)C3CCC21C'
p1368
aS'CC(C)CCCC(C)C1CCC2C3=CCC4C(C)C(O[Si](C)(C)C)CCC4(C)C3CCC21C'
p1369
aS'CC(C)CCCC(C)C1CCC2C3C(O)CC4=CC(=O)CCC4(C)C3CCC12C'
p1370
aS'CC(CCCC(C)C1CCC2C3C(O)C=C4CC(O)CCC4(C)C3CCC12C)C(=O)O'
p1371
aS'CC(C)CCCC(C)C1CCC2C3CCC4c5nc6cc([N+](=O)[O-])ccc6nc5CCC4(C)C3CCC12C'
p1372
a.